
Image.out:     file format elf32-littlearm


Disassembly of section .text:

00000000 <g_pfnVectors>:

const piniod_t __input_pins [] = INPUT_PIN_LIST;

void pin_sensor_init () { __pinsen_setedge_irq; }

void pin_sensor_read (word st, const byte *junk, address val) {
       0:	20005000 	andcs	r5, r0, r0

	const piniod_t *p;
	word i;
	byte v;

	if (val == NULL) {
       4:	000023c9 	andeq	r2, r0, r9, asr #7
		// Called to issue a wait request
		if (st == WNONE)
       8:	000023c3 	andeq	r2, r0, r3, asr #7
       c:	000023c5 	andeq	r2, r0, r5, asr #7
			// Make sure this is not WNONE
			return;
		cli;
		__pinsen_clear_and_enable;
      10:	000023c7 	andeq	r2, r0, r7, asr #7
      14:	000023c7 	andeq	r2, r0, r7, asr #7
		when (&__input_pins, st);
      18:	000023c7 	andeq	r2, r0, r7, asr #7
	...
	}

	*val = 0;
	for (i = 0, p = __input_pins;
	    	    i < sizeof (__input_pins) / sizeof (piniod_t); i++, p++)
		*val |= __port_in_value (p) << i;
      2c:	000023c7 	andeq	r2, r0, r7, asr #7
      30:	000023c7 	andeq	r2, r0, r7, asr #7
    ASSERT( dioNumberLegal( dioNumber ));

    //
    // Return the input value from the specified DIO.
    //
    return (( HWREG( GPIO_BASE + GPIO_O_DIN31_0 ) >> dioNumber ) & 1 );
      34:	00000000 	andeq	r0, r0, r0
      38:	000023c7 	andeq	r2, r0, r7, asr #7
      3c:	000023c7 	andeq	r2, r0, r7, asr #7
      40:	000010ad 	andeq	r1, r0, sp, lsr #1
      44:	000023c7 	andeq	r2, r0, r7, asr #7
      48:	000023c7 	andeq	r2, r0, r7, asr #7
}
      4c:	000023c7 	andeq	r2, r0, r7, asr #7
      50:	00000c6d 	andeq	r0, r0, sp, ror #24
      54:	00000f6d 	andeq	r0, r0, sp, ror #30
	if (!button_still_pressed (__button_list [pbutton]))
		goto Done;

	if (BUTTON_REPEAT (__button_list [pbutton])) {
		// Wait for repeat
		delay (BUTTON_REPEAT_DELAY, BU_LOOP);
      58:	000023c7 	andeq	r2, r0, r7, asr #7
	    pbutton++) {
      5c:	000023c7 	andeq	r2, r0, r7, asr #7
      60:	000023c7 	andeq	r2, r0, r7, asr #7
	if (!button_still_pressed (__button_list [pbutton]))
      64:	00002df9 	strdeq	r2, [r0], -r9
      68:	000023c7 	andeq	r2, r0, r7, asr #7
      6c:	000023c7 	andeq	r2, r0, r7, asr #7
      70:	000023c7 	andeq	r2, r0, r7, asr #7
      74:	000023c7 	andeq	r2, r0, r7, asr #7
	if (BUTTON_REPEAT (__button_list [pbutton])) {
      78:	000023c7 	andeq	r2, r0, r7, asr #7
      7c:	000023c7 	andeq	r2, r0, r7, asr #7
		delay (BUTTON_REPEAT_DELAY, BU_LOOP);
      80:	000023c7 	andeq	r2, r0, r7, asr #7
      84:	000023c7 	andeq	r2, r0, r7, asr #7
	} else
		goto Debounce;

  entry (BU_LOOP)

	if (!button_still_pressed (__button_list [pbutton]))
      88:	000023c7 	andeq	r2, r0, r7, asr #7
      8c:	000023c7 	andeq	r2, r0, r7, asr #7
      90:	000023c7 	andeq	r2, r0, r7, asr #7
      94:	000023c7 	andeq	r2, r0, r7, asr #7
      98:	000023c7 	andeq	r2, r0, r7, asr #7
		goto Done;

	if (baction == NULL)
      9c:	000023c7 	andeq	r2, r0, r7, asr #7
      a0:	000023c7 	andeq	r2, r0, r7, asr #7
		goto Term;

	(*baction) (pbutton);
      a4:	000023c7 	andeq	r2, r0, r7, asr #7

	delay (BUTTON_REPEAT_INTERVAL, BU_LOOP);

endthread
      a8:	000023c7 	andeq	r2, r0, r7, asr #7
	delay (BUTTON_REPEAT_INTERVAL, BU_LOOP);
      ac:	000023c7 	andeq	r2, r0, r7, asr #7
      b0:	000023c7 	andeq	r2, r0, r7, asr #7
endthread
      b4:	000023c7 	andeq	r2, r0, r7, asr #7
      b8:	000023c7 	andeq	r2, r0, r7, asr #7
      bc:	000023c7 	andeq	r2, r0, r7, asr #7
      c0:	000023c7 	andeq	r2, r0, r7, asr #7
      c4:	000023c7 	andeq	r2, r0, r7, asr #7

000000c8 <sender>:
	return response_message;

};

// sends packet information to other nodes
fsm sender(struct ResponseMessage *message) {
      c8:	b538      	push	{r3, r4, r5, lr}
      ca:	4605      	mov	r5, r0
      cc:	b128      	cbz	r0, da <sender+0x12>
      ce:	2801      	cmp	r0, #1
      d0:	d023      	beq.n	11a <_Min_Stack_Size+0x1a>
	state CONFIRM_message:
		// Display message was sent
		ser_out(CONFIRM_message, "Message sent\r\n");
		// Exit out of fsm
		finish;
}
      d2:	e8bd 4038 	ldmia.w	sp!, {r3, r4, r5, lr}
      d6:	f001 bb07 	b.w	16e8 <__pi_badstate>
fsm sender(struct ResponseMessage *message) {
      da:	4b20      	ldr	r3, [pc, #128]	; (15c <_Min_Stack_Size+0x5c>)
		packet = tcv_wnp(sending, sfd, 4 + packet_size); //NOTE: PUT SIZE OF MESSAGE + 4
      dc:	4920      	ldr	r1, [pc, #128]	; (160 <_Min_Stack_Size+0x60>)
fsm sender(struct ResponseMessage *message) {
      de:	681b      	ldr	r3, [r3, #0]
		packet = tcv_wnp(sending, sfd, 4 + packet_size); //NOTE: PUT SIZE OF MESSAGE + 4
      e0:	2222      	movs	r2, #34	; 0x22
fsm sender(struct ResponseMessage *message) {
      e2:	689c      	ldr	r4, [r3, #8]
		packet = tcv_wnp(sending, sfd, 4 + packet_size); //NOTE: PUT SIZE OF MESSAGE + 4
      e4:	6809      	ldr	r1, [r1, #0]
      e6:	4603      	mov	r3, r0
      e8:	f001 ffa6 	bl	2038 <tcv_wnps>
		packet[0] = 0;
      ec:	8005      	strh	r5, [r0, #0]
		*p = message->gid;
      ee:	8822      	ldrh	r2, [r4, #0]
		packet = tcv_wnp(sending, sfd, 4 + packet_size); //NOTE: PUT SIZE OF MESSAGE + 4
      f0:	4b1c      	ldr	r3, [pc, #112]	; (164 <_Min_Stack_Size+0x64>)
		*p = message->gid;
      f2:	7082      	strb	r2, [r0, #2]
		*p = message->tpe;p++;
      f4:	78a2      	ldrb	r2, [r4, #2]
      f6:	461d      	mov	r5, r3
      f8:	7102      	strb	r2, [r0, #4]
		*p = message->request_number;p++;
      fa:	78e2      	ldrb	r2, [r4, #3]
		packet = tcv_wnp(sending, sfd, 4 + packet_size); //NOTE: PUT SIZE OF MESSAGE + 4
      fc:	6018      	str	r0, [r3, #0]
		*p = message->request_number;p++;
      fe:	7142      	strb	r2, [r0, #5]
		*p = message->sender_id;p++;
     100:	7922      	ldrb	r2, [r4, #4]
     102:	7182      	strb	r2, [r0, #6]
		*p = message->receiver_id;p++;
     104:	7962      	ldrb	r2, [r4, #5]
     106:	71c2      	strb	r2, [r0, #7]
		switch(message->tpe) {
     108:	78a2      	ldrb	r2, [r4, #2]
     10a:	2a04      	cmp	r2, #4
     10c:	d80e      	bhi.n	12c <_Min_Stack_Size+0x2c>
     10e:	2a02      	cmp	r2, #2
     110:	d81e      	bhi.n	150 <_Min_Stack_Size+0x50>
     112:	d016      	beq.n	142 <_Min_Stack_Size+0x42>
		tcv_endp(packet);
     114:	6828      	ldr	r0, [r5, #0]
     116:	f001 fea5 	bl	1e64 <tcv_endp>
		ser_out(CONFIRM_message, "Message sent\r\n");
     11a:	2001      	movs	r0, #1
     11c:	4912      	ldr	r1, [pc, #72]	; (168 <_Min_Stack_Size+0x68>)
     11e:	f002 fa27 	bl	2570 <ser_out>
}
     122:	e8bd 4038 	ldmia.w	sp!, {r3, r4, r5, lr}
		finish;
     126:	2000      	movs	r0, #0
     128:	f001 bcbe 	b.w	1aa8 <kill>
     12c:	2a05      	cmp	r2, #5
     12e:	d1f1      	bne.n	114 <_Min_Stack_Size+0x14>
				*p = message->status;p++;
     130:	79a3      	ldrb	r3, [r4, #6]
				strncpy(p, message->record, sizeof(message->record));
     132:	2214      	movs	r2, #20
				*p = message->status;p++;
     134:	7203      	strb	r3, [r0, #8]
				*p = message->padding;p++;
     136:	79e3      	ldrb	r3, [r4, #7]
				strncpy(p, message->record, sizeof(message->record));
     138:	f104 0108 	add.w	r1, r4, #8
				*p = message->padding;p++;
     13c:	7243      	strb	r3, [r0, #9]
				strncpy(p, message->record, sizeof(message->record));
     13e:	300a      	adds	r0, #10
     140:	e003      	b.n	14a <_Min_Stack_Size+0x4a>
				strncpy(p, message->record, sizeof(message->record));
     142:	2214      	movs	r2, #20
     144:	f104 0108 	add.w	r1, r4, #8
     148:	3008      	adds	r0, #8
				strncpy(p, message->record, sizeof(message->record));
     14a:	f001 fbe2 	bl	1912 <__pi_strncpy>
				break;
     14e:	e7e1      	b.n	114 <_Min_Stack_Size+0x14>
				*p = message->record_index;p++;
     150:	7f23      	ldrb	r3, [r4, #28]
     152:	7203      	strb	r3, [r0, #8]
				*p = message->padding;
     154:	79e3      	ldrb	r3, [r4, #7]
     156:	7243      	strb	r3, [r0, #9]
				break;
     158:	e7dc      	b.n	114 <_Min_Stack_Size+0x14>
     15a:	bf00      	nop
     15c:	200006d0 	ldrdcs	r0, [r0], -r0	; <UNPREDICTABLE>
     160:	20000000 	andcs	r0, r0, r0
     164:	2000055c 	andcs	r0, r0, ip, asr r5
     168:	00004958 	andeq	r4, r0, r8, asr r9

0000016c <reset_array>:
		node->nnodes[i] = 0;
     16c:	2200      	movs	r2, #0
     16e:	f500 638d 	add.w	r3, r0, #1128	; 0x468
     172:	f200 4081 	addw	r0, r0, #1153	; 0x481
     176:	f803 2b01 	strb.w	r2, [r3], #1
	for (int i=0; i<NNODE_GROUP_SIZE; i++) {
     17a:	4283      	cmp	r3, r0
     17c:	d1fb      	bne.n	176 <reset_array+0xa>
}
     17e:	4770      	bx	lr

00000180 <init_node>:
bool init_node(struct Node* node){
     180:	b510      	push	{r4, lr}
    node->id  = 0;                  // default id value 0
     182:	2400      	movs	r4, #0
     184:	7004      	strb	r4, [r0, #0]
    node->gid = 0;                  // default gid value 0
     186:	8044      	strh	r4, [r0, #2]
    node->index = 0;                // default entry count 0
     188:	f880 4481 	strb.w	r4, [r0, #1153]	; 0x481
    node->data_base.item_count = 0; // default no items in array
     18c:	f880 4464 	strb.w	r4, [r0, #1124]	; 0x464
	reset_array(node);
     190:	f7ff ffec 	bl	16c <reset_array>
    DEBUG_PRINT("Error initializing node...\n");
     194:	4802      	ldr	r0, [pc, #8]	; (1a0 <init_node+0x20>)
     196:	f001 fd29 	bl	1bec <diag>
};
     19a:	4620      	mov	r0, r4
     19c:	bd10      	pop	{r4, pc}
     19e:	bf00      	nop
     1a0:	00004967 	andeq	r4, r0, r7, ror #18

000001a4 <generate_request_num>:
uint8_t generate_request_num(void){
     1a4:	b508      	push	{r3, lr}
    return (uint8_t) (rand() % 255);
     1a6:	f004 fb91 	bl	48cc <rand>
     1aa:	23ff      	movs	r3, #255	; 0xff
     1ac:	fb90 f3f3 	sdiv	r3, r0, r3
     1b0:	4418      	add	r0, r3
}
     1b2:	b2c0      	uxtb	r0, r0
     1b4:	bd08      	pop	{r3, pc}

000001b6 <clear_node_neighbour_array>:
            node->nnodes[i] = 0; // set to null byte
     1b6:	2200      	movs	r2, #0
     1b8:	f500 638d 	add.w	r3, r0, #1128	; 0x468
     1bc:	f200 4081 	addw	r0, r0, #1153	; 0x481
     1c0:	f803 2b01 	strb.w	r2, [r3], #1
        for (int i = 0; i < NNODE_GROUP_SIZE; i++){
     1c4:	4283      	cmp	r3, r0
     1c6:	d1fb      	bne.n	1c0 <clear_node_neighbour_array+0xa>
};
     1c8:	2001      	movs	r0, #1
     1ca:	4770      	bx	lr

000001cc <delete_record>:
    if (node->data_base.item_count == 0 || node->data_base.item_array[index].data_entry == NULL){
     1cc:	f890 3464 	ldrb.w	r3, [r0, #1124]	; 0x464
     1d0:	b143      	cbz	r3, 1e4 <delete_record+0x18>
        node->data_base.item_array[index].data_entry[0] = '\0';
     1d2:	221c      	movs	r2, #28
     1d4:	fb02 0101 	mla	r1, r2, r1, r0
     1d8:	2200      	movs	r2, #0
        node->data_base.item_count -= 1;
     1da:	3b01      	subs	r3, #1
        node->data_base.item_array[index].data_entry[0] = '\0';
     1dc:	714a      	strb	r2, [r1, #5]
        node->data_base.item_array[index].timestamp = 0;
     1de:	61ca      	str	r2, [r1, #28]
        node->data_base.item_count -= 1;
     1e0:	f880 3464 	strb.w	r3, [r0, #1124]	; 0x464
};
     1e4:	2000      	movs	r0, #0
     1e6:	4770      	bx	lr

000001e8 <receiver>:

// receives packet information from wireless connected nodes
fsm receiver(struct Node* node_db) {
     1e8:	b570      	push	{r4, r5, r6, lr}
     1ea:	4ba3      	ldr	r3, [pc, #652]	; (478 <receiver+0x290>)
     1ec:	b090      	sub	sp, #64	; 0x40
     1ee:	681b      	ldr	r3, [r3, #0]
     1f0:	689c      	ldr	r4, [r3, #8]
     1f2:	2809      	cmp	r0, #9
     1f4:	f200 8192 	bhi.w	51c <receiver+0x334>
     1f8:	e8df f000 	tbb	[pc, r0]
     1fc:	7f780c05 	svcvc	0x00780c05
     200:	a3998d86 	orrsge	r8, r9, #8576	; 0x2180
     204:	4b9db7ad 	blmi	fe76e0c0 <_estack+0xde7690c0>
	address incoming_packet;
	char array[20];

	state receiving:
		// Get the next packet queued for input at the session (sfd)
		incoming_packet = tcv_rnp(receiving, sfd);
     208:	2000      	movs	r0, #0
     20a:	6819      	ldr	r1, [r3, #0]
     20c:	f001 fed4 	bl	1fb8 <tcv_rnp>
     210:	4b9b      	ldr	r3, [pc, #620]	; (480 <receiver+0x298>)
     212:	6018      	str	r0, [r3, #0]
	state ok:
		uint8_t tpe;
		uint8_t bytes_read = tcv_read(incoming_packet+3, &tpe, 1); // NOTE: might still be broked'd
     214:	4d9a      	ldr	r5, [pc, #616]	; (480 <receiver+0x298>)
     216:	f10d 0107 	add.w	r1, sp, #7
     21a:	6828      	ldr	r0, [r5, #0]
     21c:	2201      	movs	r2, #1
     21e:	3006      	adds	r0, #6
     220:	f001 ff68 	bl	20f4 <tcv_read>

		if (bytes_read != 1){
			//proceed error; //NOTE: NO ERROR STATE
		};
		// in each switch case where we send a response using call (), we may be able to remove the return state...
		switch (tpe){
     224:	f89d 1007 	ldrb.w	r1, [sp, #7]
     228:	2905      	cmp	r1, #5
     22a:	f200 8173 	bhi.w	514 <receiver+0x32c>
     22e:	e8df f011 	tbh	[pc, r1, lsl #1]
     232:	00320006 	eorseq	r0, r2, r6
     236:	00cc00a4 	sbceq	r0, ip, r4, lsr #1
     23a:	010400dc 	ldrdeq	r0, [r4, -ip]
			*/
			case DISCOVERY_REQUEST: ;
				// respondng with this
				struct ResponseMessage *response_message_0;
				// receiving this
				struct DiscoveryRequestMessage *discovery_request_message = (struct DiscoveryRequestMessage*)(incoming_packet+1);
     23e:	682d      	ldr	r5, [r5, #0]

				/*DEBUGGING*/
				DEBUG_PRINT("\r\nRECEIVED GID: %u", discovery_request_message->gid);
     240:	4890      	ldr	r0, [pc, #576]	; (484 <receiver+0x29c>)
     242:	8869      	ldrh	r1, [r5, #2]
     244:	f001 fcd2 	bl	1bec <diag>
				DEBUG_PRINT("\rRECEIVED TYPE: %u", discovery_request_message->tpe);
     248:	7929      	ldrb	r1, [r5, #4]
     24a:	488f      	ldr	r0, [pc, #572]	; (488 <receiver+0x2a0>)
     24c:	f001 fcce 	bl	1bec <diag>
				DEBUG_PRINT("\r\nRECEIVED REQ NUM: %u", discovery_request_message->request_number);
     250:	7969      	ldrb	r1, [r5, #5]
     252:	488e      	ldr	r0, [pc, #568]	; (48c <receiver+0x2a4>)
     254:	f001 fcca 	bl	1bec <diag>
				DEBUG_PRINT("\r\nRECEIVED SID: %u", discovery_request_message->sender_id);
     258:	79a9      	ldrb	r1, [r5, #6]
     25a:	488d      	ldr	r0, [pc, #564]	; (490 <receiver+0x2a8>)
     25c:	f001 fcc6 	bl	1bec <diag>
				DEBUG_PRINT("\r\nRECEIVED RID: %u", discovery_request_message->receiver_id);
     260:	79e9      	ldrb	r1, [r5, #7]
     262:	488c      	ldr	r0, [pc, #560]	; (494 <receiver+0x2ac>)
     264:	f001 fcc2 	bl	1bec <diag>

				// if the group_ids match
				if (discovery_request_message->gid == node_db->gid){
     268:	886a      	ldrh	r2, [r5, #2]
     26a:	8863      	ldrh	r3, [r4, #2]
     26c:	4293      	cmp	r3, r2
     26e:	d13d      	bne.n	2ec <receiver+0x104>
					response_message_0->gid = discovery_request_message->gid;
     270:	2100      	movs	r1, #0
     272:	800b      	strh	r3, [r1, #0]
					response_message_0->tpe = DISCOVERY_RESPONSE;
     274:	2301      	movs	r3, #1
     276:	708b      	strb	r3, [r1, #2]
					response_message_0->request_number = discovery_request_message->request_number;
     278:	796b      	ldrb	r3, [r5, #5]
     27a:	70cb      	strb	r3, [r1, #3]
					response_message_0->sender_id = node_db->id;
     27c:	7823      	ldrb	r3, [r4, #0]
     27e:	710b      	strb	r3, [r1, #4]
					response_message_0->receiver_id = discovery_request_message->sender_id;
     280:	79ab      	ldrb	r3, [r5, #6]
     282:	714b      	strb	r3, [r1, #5]

					// NOTE: return_from_sender might be optional, in which case it should just return to here and then break
					call sender(response_message_0, done_case);
     284:	4884      	ldr	r0, [pc, #528]	; (498 <receiver+0x2b0>)
     286:	f001 fc8b 	bl	1ba0 <__pi_fork>
     28a:	2102      	movs	r1, #2
     28c:	f001 faf2 	bl	1874 <__pi_join>
     290:	b360      	cbz	r0, 2ec <receiver+0x104>
     292:	f001 f84b 	bl	132c <__pi_release>

			Based on the specifications, there is no response when this kind of message is received.
			*/
			case DISCOVERY_RESPONSE: ;
				// receiving this, no response.
				struct DiscoveryResponseMessage* response_message_1 = (struct DiscoveryResponseMessage*)(incoming_packet+1);
     296:	682d      	ldr	r5, [r5, #0]

				/*DEBUGGING*/
				DEBUG_PRINT("RECEIVED GID: %d\n", response_message_1->gid);
     298:	4880      	ldr	r0, [pc, #512]	; (49c <receiver+0x2b4>)
     29a:	8869      	ldrh	r1, [r5, #2]
     29c:	f001 fca6 	bl	1bec <diag>
				DEBUG_PRINT("RECEIVED TYPE: %d\n", response_message_1->tpe);
     2a0:	7929      	ldrb	r1, [r5, #4]
     2a2:	487f      	ldr	r0, [pc, #508]	; (4a0 <receiver+0x2b8>)
     2a4:	f001 fca2 	bl	1bec <diag>
				DEBUG_PRINT("RECEIVED REQ NUM: %d\n", response_message_1->request_number);
     2a8:	7969      	ldrb	r1, [r5, #5]
     2aa:	487e      	ldr	r0, [pc, #504]	; (4a4 <receiver+0x2bc>)
     2ac:	f001 fc9e 	bl	1bec <diag>
				DEBUG_PRINT("RECEIVED SID: %d\n", response_message_1->sender_id);
     2b0:	79a9      	ldrb	r1, [r5, #6]
     2b2:	487d      	ldr	r0, [pc, #500]	; (4a8 <receiver+0x2c0>)
     2b4:	f001 fc9a 	bl	1bec <diag>
				DEBUG_PRINT("RECEIVED RID: %d\n", response_message_1->receiver_id);
     2b8:	79e9      	ldrb	r1, [r5, #7]
     2ba:	487c      	ldr	r0, [pc, #496]	; (4ac <receiver+0x2c4>)
     2bc:	f001 fc96 	bl	1bec <diag>

				node_db->nnodes[node_db->index] = node_db->gid == response_message_1->gid && response_message_1->sender_id < NNODE_GROUP_SIZE && response_message_1->sender_id > 0 ? response_message_1->sender_id : node_db->nnodes[node_db->index];
     2c0:	886b      	ldrh	r3, [r5, #2]
     2c2:	8862      	ldrh	r2, [r4, #2]
     2c4:	429a      	cmp	r2, r3
     2c6:	f894 3481 	ldrb.w	r3, [r4, #1153]	; 0x481
     2ca:	d103      	bne.n	2d4 <receiver+0xec>
     2cc:	79aa      	ldrb	r2, [r5, #6]
     2ce:	1e51      	subs	r1, r2, #1
     2d0:	2917      	cmp	r1, #23
     2d2:	d902      	bls.n	2da <receiver+0xf2>
     2d4:	18e2      	adds	r2, r4, r3
     2d6:	f892 2468 	ldrb.w	r2, [r2, #1128]	; 0x468
     2da:	18e1      	adds	r1, r4, r3
     2dc:	f881 2468 	strb.w	r2, [r1, #1128]	; 0x468
				// increment the index if the insertion succeeded.
				if (node_db->nnodes[node_db->index] == response_message_1->sender_id){
     2e0:	79a9      	ldrb	r1, [r5, #6]
     2e2:	4291      	cmp	r1, r2
     2e4:	d102      	bne.n	2ec <receiver+0x104>
					node_db->index+=1;
     2e6:	3301      	adds	r3, #1
     2e8:	f884 3481 	strb.w	r3, [r4, #1153]	; 0x481
				DEBUG_PRINT("ERROR: received type [%d] is not legal packet type", tpe);
				break;

		};
	state done_case:
		tcv_endp(incoming_packet);
     2ec:	4b64      	ldr	r3, [pc, #400]	; (480 <receiver+0x298>)
     2ee:	6818      	ldr	r0, [r3, #0]
     2f0:	f001 fdb8 	bl	1e64 <tcv_endp>
		proceed receiving;
     2f4:	2000      	movs	r0, #0
     2f6:	f001 fa7f 	bl	17f8 <proceed>
	
	// Succeeded in performing requested action
	state response_1_create:
		ser_out(response_1_create, "\r\nData Saved");
     2fa:	2003      	movs	r0, #3
     2fc:	496c      	ldr	r1, [pc, #432]	; (4b0 <receiver+0x2c8>)
     2fe:	f002 f937 	bl	2570 <ser_out>
		proceed receiving;
     302:	2000      	movs	r0, #0
     304:	f001 fa78 	bl	17f8 <proceed>
	state response_1_delete:
		ser_out(response_1_delete, "\r\nRecord Deleted");
     308:	2004      	movs	r0, #4
     30a:	496a      	ldr	r1, [pc, #424]	; (4b4 <receiver+0x2cc>)
     30c:	f002 f930 	bl	2570 <ser_out>
		proceed receiving;
     310:	2000      	movs	r0, #0
     312:	f001 fa71 	bl	17f8 <proceed>
	state response_1_retrieve:
		ser_outf(response_1_retrieve, "\r\nRecord Received from %d: %s", response_message_5->sender_id, response_message_5->record);
     316:	4b68      	ldr	r3, [pc, #416]	; (4b8 <receiver+0x2d0>)
     318:	2005      	movs	r0, #5
     31a:	681a      	ldr	r2, [r3, #0]
     31c:	4967      	ldr	r1, [pc, #412]	; (4bc <receiver+0x2d4>)
     31e:	f102 0308 	add.w	r3, r2, #8
     322:	7912      	ldrb	r2, [r2, #4]
     324:	f002 f996 	bl	2654 <ser_outf>
		proceed receiving;
     328:	2000      	movs	r0, #0
     32a:	f001 fa65 	bl	17f8 <proceed>
	
	// Failed to perform requests action
	state response_2:
		ser_outf(response_2, "\r\nThe record can't be saved on node %d", response_message_5->sender_id);
     32e:	4b62      	ldr	r3, [pc, #392]	; (4b8 <receiver+0x2d0>)
     330:	2006      	movs	r0, #6
     332:	681b      	ldr	r3, [r3, #0]
     334:	4962      	ldr	r1, [pc, #392]	; (4c0 <receiver+0x2d8>)
     336:	791a      	ldrb	r2, [r3, #4]
     338:	f002 f98c 	bl	2654 <ser_outf>
		proceed receiving;
     33c:	2000      	movs	r0, #0
     33e:	f001 fa5b 	bl	17f8 <proceed>
	state response_3:
		ser_outf(response_3, "\r\nThe record does not exists on node %d", response_message_5->sender_id);
     342:	4b5d      	ldr	r3, [pc, #372]	; (4b8 <receiver+0x2d0>)
     344:	2007      	movs	r0, #7
     346:	681b      	ldr	r3, [r3, #0]
     348:	495e      	ldr	r1, [pc, #376]	; (4c4 <receiver+0x2dc>)
     34a:	791a      	ldrb	r2, [r3, #4]
     34c:	f002 f982 	bl	2654 <ser_outf>
		proceed receiving;
     350:	2000      	movs	r0, #0
     352:	f001 fa51 	bl	17f8 <proceed>
	state response_4:
		ser_outf(response_4, "\r\nThe record does not exist on node %d", response_message_5->sender_id);
     356:	4b58      	ldr	r3, [pc, #352]	; (4b8 <receiver+0x2d0>)
     358:	2008      	movs	r0, #8
     35a:	681b      	ldr	r3, [r3, #0]
     35c:	495a      	ldr	r1, [pc, #360]	; (4c8 <receiver+0x2e0>)
     35e:	791a      	ldrb	r2, [r3, #4]
     360:	f002 f978 	bl	2654 <ser_outf>
		proceed receiving;
     364:	2000      	movs	r0, #0
     366:	f001 fa47 	bl	17f8 <proceed>

	// likely want to respond with error message
	state error:
		DEBUG_PRINT("ERROR: someting went wrong when receiving the packet");
     36a:	4858      	ldr	r0, [pc, #352]	; (4cc <receiver+0x2e4>)
     36c:	f001 fc3e 	bl	1bec <diag>
		// handle error
		// retry?
		proceed receiving;
     370:	2000      	movs	r0, #0
     372:	f001 fa41 	bl	17f8 <proceed>
		
}
     376:	b010      	add	sp, #64	; 0x40
     378:	bd70      	pop	{r4, r5, r6, pc}
				struct CreateRecordMessage* create_record_message = (struct CreateRecordMessage*)(incoming_packet+1);
     37a:	682d      	ldr	r5, [r5, #0]
				DEBUG_PRINT("RECEIVED GID: %d\n", create_record_message->gid);
     37c:	4847      	ldr	r0, [pc, #284]	; (49c <receiver+0x2b4>)
     37e:	8869      	ldrh	r1, [r5, #2]
     380:	f001 fc34 	bl	1bec <diag>
				DEBUG_PRINT("RECEIVED TYPE: %d\n", create_record_message->tpe);
     384:	7929      	ldrb	r1, [r5, #4]
     386:	4846      	ldr	r0, [pc, #280]	; (4a0 <receiver+0x2b8>)
     388:	f001 fc30 	bl	1bec <diag>
				DEBUG_PRINT("RECEIVED REQ NUM: %d\n", create_record_message->request_number);
     38c:	7969      	ldrb	r1, [r5, #5]
     38e:	4845      	ldr	r0, [pc, #276]	; (4a4 <receiver+0x2bc>)
     390:	f001 fc2c 	bl	1bec <diag>
				DEBUG_PRINT("RECEIVED SID: %d\n", create_record_message->sender_id);
     394:	79a9      	ldrb	r1, [r5, #6]
     396:	4844      	ldr	r0, [pc, #272]	; (4a8 <receiver+0x2c0>)
     398:	f001 fc28 	bl	1bec <diag>
				DEBUG_PRINT("RECEIVED RID: %d\n", create_record_message->receiver_id);
     39c:	79e9      	ldrb	r1, [r5, #7]
     39e:	4843      	ldr	r0, [pc, #268]	; (4ac <receiver+0x2c4>)
     3a0:	f001 fc24 	bl	1bec <diag>
				DEBUG_PRINT("RECEIVED RECORD: %s\n", create_record_message->record);
     3a4:	484a      	ldr	r0, [pc, #296]	; (4d0 <receiver+0x2e8>)
     3a6:	f105 0108 	add.w	r1, r5, #8
     3aa:	f001 fc1f 	bl	1bec <diag>
				if (create_record_message->receiver_id != node_db->id || create_record_message->gid != node_db->id){
     3ae:	7822      	ldrb	r2, [r4, #0]
     3b0:	79eb      	ldrb	r3, [r5, #7]
     3b2:	4293      	cmp	r3, r2
     3b4:	d19a      	bne.n	2ec <receiver+0x104>
     3b6:	886a      	ldrh	r2, [r5, #2]
     3b8:	429a      	cmp	r2, r3
     3ba:	d197      	bne.n	2ec <receiver+0x104>
		strncpy(response_message->record, rec, 20);
     3bc:	2214      	movs	r2, #20
     3be:	4945      	ldr	r1, [pc, #276]	; (4d4 <receiver+0x2ec>)
     3c0:	2008      	movs	r0, #8
     3c2:	f001 faa6 	bl	1912 <__pi_strncpy>
					call sender(response_message_4, done_case);
     3c6:	2100      	movs	r1, #0
     3c8:	e75c      	b.n	284 <receiver+0x9c>
				struct DeleteRecordMessage *delete_record_message = (struct DeleteRecordMessage*)(incoming_packet+1);
     3ca:	682b      	ldr	r3, [r5, #0]
				if (delete_record_message->gid != node_db->gid || delete_record_message->receiver_id != node_db->id){
     3cc:	8862      	ldrh	r2, [r4, #2]
     3ce:	8859      	ldrh	r1, [r3, #2]
     3d0:	4291      	cmp	r1, r2
     3d2:	d18b      	bne.n	2ec <receiver+0x104>
     3d4:	79d9      	ldrb	r1, [r3, #7]
     3d6:	7822      	ldrb	r2, [r4, #0]
     3d8:	4291      	cmp	r1, r2
     3da:	d187      	bne.n	2ec <receiver+0x104>
				if (delete_record_message->record_index >=0 && delete_record_message->record_index <= 40){
     3dc:	7a19      	ldrb	r1, [r3, #8]
     3de:	2928      	cmp	r1, #40	; 0x28
     3e0:	d884      	bhi.n	2ec <receiver+0x104>
					if (delete_record(node_db, delete_record_message->record_index)){
     3e2:	4620      	mov	r0, r4
     3e4:	f7ff fef2 	bl	1cc <delete_record>
     3e8:	e7e8      	b.n	3bc <receiver+0x1d4>
				if (delete_record_message->gid != node_db->gid || delete_record_message->receiver_id != node_db->id){
     3ea:	2200      	movs	r2, #0
     3ec:	8811      	ldrh	r1, [r2, #0]
     3ee:	8862      	ldrh	r2, [r4, #2]
     3f0:	4291      	cmp	r1, r2
     3f2:	f47f af7b 	bne.w	2ec <receiver+0x104>
     3f6:	2200      	movs	r2, #0
     3f8:	7951      	ldrb	r1, [r2, #5]
     3fa:	7822      	ldrb	r2, [r4, #0]
     3fc:	4291      	cmp	r1, r2
     3fe:	f47f af75 	bne.w	2ec <receiver+0x104>
				if (retreive_record_message->record_index >=0 && retreive_record_message->record_index <= 40){
     402:	682b      	ldr	r3, [r5, #0]
     404:	7a1b      	ldrb	r3, [r3, #8]
     406:	2b28      	cmp	r3, #40	; 0x28
     408:	f63f af70 	bhi.w	2ec <receiver+0x104>
    return node->data_base.item_array[index];
     40c:	221c      	movs	r2, #28
     40e:	fb02 4403 	mla	r4, r2, r3, r4
     412:	ad09      	add	r5, sp, #36	; 0x24
     414:	3404      	adds	r4, #4
     416:	cc0f      	ldmia	r4!, {r0, r1, r2, r3}
     418:	c50f      	stmia	r5!, {r0, r1, r2, r3}
     41a:	e894 0007 	ldmia.w	r4, {r0, r1, r2}
					retrieved_record = retrieve_record(node_db, retreive_record_message->record_index);
     41e:	ae09      	add	r6, sp, #36	; 0x24
     420:	ac02      	add	r4, sp, #8
    return node->data_base.item_array[index];
     422:	e885 0007 	stmia.w	r5, {r0, r1, r2}
					retrieved_record = retrieve_record(node_db, retreive_record_message->record_index);
     426:	ce0f      	ldmia	r6!, {r0, r1, r2, r3}
     428:	c40f      	stmia	r4!, {r0, r1, r2, r3}
     42a:	e895 0007 	ldmia.w	r5, {r0, r1, r2}
     42e:	e884 0007 	stmia.w	r4, {r0, r1, r2}
		strncpy(response_message->record, rec, 20);
     432:	2214      	movs	r2, #20
     434:	f10d 0109 	add.w	r1, sp, #9
     438:	e7c2      	b.n	3c0 <receiver+0x1d8>
				response_message_5 = (struct ResponseMessage*)(incoming_packet+1);
     43a:	682a      	ldr	r2, [r5, #0]
     43c:	4d1e      	ldr	r5, [pc, #120]	; (4b8 <receiver+0x2d0>)
     43e:	1c91      	adds	r1, r2, #2
				if (response_message_5->gid != node_db->gid || response_message_5->receiver_id != node_db->id){
     440:	8850      	ldrh	r0, [r2, #2]
				response_message_5 = (struct ResponseMessage*)(incoming_packet+1);
     442:	6029      	str	r1, [r5, #0]
				if (response_message_5->gid != node_db->gid || response_message_5->receiver_id != node_db->id){
     444:	8861      	ldrh	r1, [r4, #2]
     446:	4288      	cmp	r0, r1
     448:	f47f af50 	bne.w	2ec <receiver+0x104>
     44c:	79d2      	ldrb	r2, [r2, #7]
     44e:	7823      	ldrb	r3, [r4, #0]
     450:	429a      	cmp	r2, r3
     452:	f47f af4b 	bne.w	2ec <receiver+0x104>
				if(!response_flag){
     456:	4820      	ldr	r0, [pc, #128]	; (4d8 <receiver+0x2f0>)
     458:	8803      	ldrh	r3, [r0, #0]
     45a:	b91b      	cbnz	r3, 464 <receiver+0x27c>
					response_flag=1;
     45c:	2301      	movs	r3, #1
     45e:	8003      	strh	r3, [r0, #0]
					trigger(&response_flag);
     460:	f001 f9ee 	bl	1840 <__pi_trigger>
				switch(response_message_5->status){
     464:	682a      	ldr	r2, [r5, #0]
     466:	7993      	ldrb	r3, [r2, #6]
     468:	3b01      	subs	r3, #1
     46a:	2b03      	cmp	r3, #3
     46c:	f63f af3e 	bhi.w	2ec <receiver+0x104>
     470:	e8df f003 	tbb	[pc, r3]
     474:	4e4c4a34 			; <UNDEFINED> instruction: 0x4e4c4a34
     478:	200006d0 	ldrdcs	r0, [r0], -r0	; <UNPREDICTABLE>
     47c:	20000000 	andcs	r0, r0, r0
     480:	20000558 	andcs	r0, r0, r8, asr r5
     484:	00004983 	andeq	r4, r0, r3, lsl #19
     488:	00004996 	muleq	r0, r6, r9
     48c:	000049a9 	andeq	r4, r0, r9, lsr #19
     490:	000049c0 	andeq	r4, r0, r0, asr #19
     494:	000049d3 	ldrdeq	r4, [r0], -r3
     498:	000000c9 	andeq	r0, r0, r9, asr #1
     49c:	000049e6 	andeq	r4, r0, r6, ror #19
     4a0:	000049f8 	strdeq	r4, [r0], -r8
     4a4:	00004a0b 	andeq	r4, r0, fp, lsl #20
     4a8:	00004a21 	andeq	r4, r0, r1, lsr #20
     4ac:	00004a33 	andeq	r4, r0, r3, lsr sl
     4b0:	00004a8d 	andeq	r4, r0, sp, lsl #21
     4b4:	00004a9a 	muleq	r0, sl, sl
     4b8:	20000564 	andcs	r0, r0, r4, ror #10
     4bc:	00004aab 	andeq	r4, r0, fp, lsr #21
     4c0:	00004ac9 	andeq	r4, r0, r9, asr #21
     4c4:	00004af0 	strdeq	r4, [r0], -r0
     4c8:	00004b18 	andeq	r4, r0, r8, lsl fp
     4cc:	00004b3f 	andeq	r4, r0, pc, lsr fp
     4d0:	00004a45 	andeq	r4, r0, r5, asr #20
     4d4:	20000540 	andcs	r0, r0, r0, asr #10
     4d8:	20000560 	andcs	r0, r0, r0, ror #10
						if (response_checker[0] == response_message_5->request_number){
     4dc:	4b11      	ldr	r3, [pc, #68]	; (524 <receiver+0x33c>)
     4de:	78d2      	ldrb	r2, [r2, #3]
     4e0:	6819      	ldr	r1, [r3, #0]
     4e2:	4291      	cmp	r1, r2
     4e4:	f47f af02 	bne.w	2ec <receiver+0x104>
							switch(response_checker[1]){
     4e8:	685b      	ldr	r3, [r3, #4]
     4ea:	2b03      	cmp	r3, #3
     4ec:	d008      	beq.n	500 <receiver+0x318>
     4ee:	2b04      	cmp	r3, #4
     4f0:	d008      	beq.n	504 <receiver+0x31c>
     4f2:	2b02      	cmp	r3, #2
     4f4:	f47f aefa 	bne.w	2ec <receiver+0x104>
									proceed response_1_create;
     4f8:	2003      	movs	r0, #3
						proceed response_2;
     4fa:	f001 f97d 	bl	17f8 <proceed>
						break;
     4fe:	e6f5      	b.n	2ec <receiver+0x104>
									proceed response_1_delete;
     500:	2004      	movs	r0, #4
     502:	e7fa      	b.n	4fa <receiver+0x312>
									proceed response_1_retrieve;
     504:	2005      	movs	r0, #5
     506:	e7f8      	b.n	4fa <receiver+0x312>
						proceed response_2;
     508:	2006      	movs	r0, #6
     50a:	e7f6      	b.n	4fa <receiver+0x312>
						proceed response_3;
     50c:	2007      	movs	r0, #7
     50e:	e7f4      	b.n	4fa <receiver+0x312>
						proceed response_4;
     510:	2008      	movs	r0, #8
     512:	e7f2      	b.n	4fa <receiver+0x312>
				DEBUG_PRINT("ERROR: received type [%d] is not legal packet type", tpe);
     514:	4804      	ldr	r0, [pc, #16]	; (528 <receiver+0x340>)
     516:	f001 fb69 	bl	1bec <diag>
				break;
     51a:	e6e7      	b.n	2ec <receiver+0x104>
}
     51c:	f001 f8e4 	bl	16e8 <__pi_badstate>
     520:	e729      	b.n	376 <receiver+0x18e>
     522:	bf00      	nop
     524:	20000660 	andcs	r0, r0, r0, ror #12
     528:	00004a5a 	andeq	r4, r0, sl, asr sl

0000052c <delete_all>:
bool delete_all(struct Node *node){
     52c:	b510      	push	{r4, lr}
    if (node->data_base.item_count == 0 || node->data_base.item_array[0].data_entry == NULL){
     52e:	f890 4464 	ldrb.w	r4, [r0, #1124]	; 0x464
     532:	b164      	cbz	r4, 54e <delete_all+0x22>
        for(int i = 0; i <= node->data_base.item_count; i++){
     534:	2300      	movs	r3, #0
     536:	4601      	mov	r1, r0
            node->data_base.item_array[i].data_entry[0] = '\0';
     538:	461a      	mov	r2, r3
        for(int i = 0; i <= node->data_base.item_count; i++){
     53a:	3301      	adds	r3, #1
     53c:	429c      	cmp	r4, r3
            node->data_base.item_array[i].data_entry[0] = '\0';
     53e:	714a      	strb	r2, [r1, #5]
            node->data_base.item_array[i].timestamp = 0;
     540:	f841 2f1c 	str.w	r2, [r1, #28]!
        for(int i = 0; i <= node->data_base.item_count; i++){
     544:	daf9      	bge.n	53a <delete_all+0xe>
    node->data_base.item_count = 0;
     546:	f880 2464 	strb.w	r2, [r0, #1124]	; 0x464
    	return false;
     54a:	2000      	movs	r0, #0
}
     54c:	bd10      	pop	{r4, pc}
        return true;
     54e:	2001      	movs	r0, #1
     550:	e7fc      	b.n	54c <delete_all+0x20>
	...

00000554 <root>:

fsm root {
     554:	b5f0      	push	{r4, r5, r6, r7, lr}
     556:	b085      	sub	sp, #20
     558:	2820      	cmp	r0, #32
     55a:	f200 8289 	bhi.w	a70 <root+0x51c>
     55e:	e8df f010 	tbh	[pc, r0, lsl #1]
     562:	00480021 	subeq	r0, r8, r1, lsr #32
     566:	00770055 	rsbseq	r0, r7, r5, asr r0
     56a:	008b007b 	addeq	r0, fp, fp, ror r0
     56e:	00b1008f 	adcseq	r0, r1, pc, lsl #1
     572:	00c900bc 	strheq	r0, [r9], #12
     576:	01390102 	teqeq	r9, r2, lsl #2
     57a:	0153014f 	cmpeq	r3, pc, asr #2
     57e:	01690165 	cmneq	r9, r5, ror #2
     582:	0196016e 	orrseq	r0, r6, lr, ror #2
     586:	01ac019a 			; <UNDEFINED> instruction: 0x01ac019a
     58a:	01c101b0 	strheq	r0, [r1, #16]
     58e:	01ed01e9 	mvneq	r0, r9, ror #3
     592:	020301ff 	andeq	r0, r3, #-1073741761	; 0xc000003f
     596:	023c0214 	eorseq	r0, ip, #20, 4	; 0x40000001
     59a:	024c0240 	subeq	r0, ip, #64, 4
     59e:	02760253 	rsbseq	r0, r6, #805306373	; 0x30000005
     5a2:	f240027d 	vqsub.s8	q8, q0, <illegal reg q14.5>

	
	state initialize_node:
		// cast node_db to struct node * and malloc to it the size of a struct node
		// setup node structure
		node_db = (struct Node *)umalloc(sizeof(struct Node));
     5a6:	4084      	lsls	r4, r0
     5a8:	f001 faa6 	bl	1af8 <__pi_malloc>
     5ac:	4c76      	ldr	r4, [pc, #472]	; (788 <root+0x234>)
     5ae:	6020      	str	r0, [r4, #0]

		// Bool condition, check for failure
		init_node(node_db);
     5b0:	f7ff fde6 	bl	180 <init_node>

		phys_cc1350(0, MAX_PKT_LEN);
     5b4:	21fa      	movs	r1, #250	; 0xfa
     5b6:	2000      	movs	r0, #0
     5b8:	f002 fc56 	bl	2e68 <phys_cc1350>
				  the null plugin offers only a single session per physical interface. This session is explicitly 
				  setup (opened) through tcv_open().

			See docs section 3 pg11/20 for the struct of this plugin
		*/
		tcv_plug (0, &plug_null);
     5bc:	4973      	ldr	r1, [pc, #460]	; (78c <root+0x238>)
     5be:	2000      	movs	r0, #0
     5c0:	f001 fce8 	bl	1f94 <tcv_plug>
		   the abbreviation "sfd"). A return of -1 means an Error has occured.

		   NOTE: the maxmium number of sessions that can be open at any time is default 8. We can redfine this in
		   options.h by setting TCV_MAX_DESC to something higher.
		*/
		sfd = tcv_open (WNONE, 0, 0);
     5c4:	2200      	movs	r2, #0
     5c6:	f64f 70ff 	movw	r0, #65535	; 0xffff
     5ca:	4611      	mov	r1, r2
     5cc:	f001 fc82 	bl	1ed4 <tcv_open>
     5d0:	4a6f      	ldr	r2, [pc, #444]	; (790 <root+0x23c>)

		if (sfd < 0) {
     5d2:	2800      	cmp	r0, #0
		sfd = tcv_open (WNONE, 0, 0);
     5d4:	6010      	str	r0, [r2, #0]
		if (sfd < 0) {
     5d6:	da04      	bge.n	5e2 <root+0x8e>
			diag("Cannot open tcv interface");
     5d8:	486e      	ldr	r0, [pc, #440]	; (794 <root+0x240>)
     5da:	f001 fb07 	bl	1bec <diag>
			halt();
     5de:	f000 ffd1 	bl	1584 <halt>

		  This function is referenced only twice in the docs. To my understainding, it determines if the
		  sfd is interpreted as a plugin id or a physical module. 
		
		*/
		tcv_control(sfd, PHYSOPT_ON, NULL);
     5e2:	2104      	movs	r1, #4
     5e4:	2200      	movs	r2, #0
     5e6:	f001 fdb9 	bl	215c <tcv_control>

		runfsm receiver(node_db);
     5ea:	6821      	ldr	r1, [r4, #0]
     5ec:	486a      	ldr	r0, [pc, #424]	; (798 <root+0x244>)
     5ee:	f001 fad7 	bl	1ba0 <__pi_fork>

	state menu:
		ser_outf(menu, "\r\nGroup %d Device #%d (%d/%d records)\r\n(G)roup ID\r\n(N)ew device ID\r\n(F)ind neighbors\r\n(C)reate record on neighbor\r\n(D)elete record on neighbor\r\n(R)etrieve record from neighbor\r\n(S)how local records\r\nR(e)set local storage\r\n\r\nSelection: ", node_db->gid, node_db->id, node_db->index, NUMB_OF_ENT);
     5f2:	2028      	movs	r0, #40	; 0x28
     5f4:	4b64      	ldr	r3, [pc, #400]	; (788 <root+0x234>)
     5f6:	6819      	ldr	r1, [r3, #0]
     5f8:	780b      	ldrb	r3, [r1, #0]
     5fa:	884a      	ldrh	r2, [r1, #2]
     5fc:	9001      	str	r0, [sp, #4]
     5fe:	f891 1481 	ldrb.w	r1, [r1, #1153]	; 0x481
     602:	2001      	movs	r0, #1
     604:	9100      	str	r1, [sp, #0]
     606:	4965      	ldr	r1, [pc, #404]	; (79c <root+0x248>)
     608:	f002 f824 	bl	2654 <ser_outf>

	state get_choice:
		ser_inf(get_choice, "%c", &CHOICE);
     60c:	4c64      	ldr	r4, [pc, #400]	; (7a0 <root+0x24c>)
     60e:	2002      	movs	r0, #2
     610:	4622      	mov	r2, r4
     612:	4964      	ldr	r1, [pc, #400]	; (7a4 <root+0x250>)
     614:	f002 f848 	bl	26a8 <ser_inf>
		switch(CHOICE) {
     618:	7823      	ldrb	r3, [r4, #0]
     61a:	2b53      	cmp	r3, #83	; 0x53
     61c:	d80f      	bhi.n	63e <root+0xea>
     61e:	2b42      	cmp	r3, #66	; 0x42
     620:	d911      	bls.n	646 <root+0xf2>
     622:	3b43      	subs	r3, #67	; 0x43
     624:	2b10      	cmp	r3, #16
     626:	d80e      	bhi.n	646 <root+0xf2>
     628:	e8df f003 	tbb	[pc, r3]
     62c:	818b8583 	orrhi	r8, fp, r3, lsl #11
     630:	0d0d0d0f 	stceq	13, cr0, [sp, #-60]	; 0xffffffc4
     634:	7f0d0d0d 	svcvc	0x000d0d0d
     638:	870d0d0d 	strhi	r0, [sp, -sp, lsl #26]
     63c:	3b630089 	blcc	18c0868 <__ccfg+0x18a08c0>
     640:	b2da      	uxtb	r2, r3
     642:	2a10      	cmp	r2, #16
     644:	d9ee      	bls.n	624 <root+0xd0>
			case 'e':
			case 'E':
				proceed del_local;
				break;
			default:
				proceed menu;
     646:	2001      	movs	r0, #1
     648:	e000      	b.n	64c <root+0xf8>
				proceed get_new_group_id;
     64a:	2003      	movs	r0, #3
				proceed menu;
     64c:	f001 f8d4 	bl	17f8 <proceed>
				break;
		}

	state get_new_group_id:
		ser_out(get_new_group_id, "Please provide a new group ID#: ");
     650:	2003      	movs	r0, #3
     652:	4955      	ldr	r1, [pc, #340]	; (7a8 <root+0x254>)
     654:	f001 ff8c 	bl	2570 <ser_out>

	/*NOTE: Do we need to add new checks here? what are the limitations on group IDs*/
	state new_group_id:
		uint16_t NEW_NODE_GID;
		ser_inf(new_group_id, "%u", &NEW_NODE_GID); // NOTE: is this syntax correct?
     658:	aa03      	add	r2, sp, #12
     65a:	4954      	ldr	r1, [pc, #336]	; (7ac <root+0x258>)
     65c:	2004      	movs	r0, #4
     65e:	f002 f823 	bl	26a8 <ser_inf>
		
		DEBUG_PRINT("setting node group ID");
     662:	4853      	ldr	r0, [pc, #332]	; (7b0 <root+0x25c>)
     664:	f001 fac2 	bl	1bec <diag>

		if (!set_node_gid(node_db, NEW_NODE_GID)){
     668:	4b47      	ldr	r3, [pc, #284]	; (788 <root+0x234>)
    node->gid = gid; 
     66a:	f8bd 200c 	ldrh.w	r2, [sp, #12]
		if (!set_node_gid(node_db, NEW_NODE_GID)){
     66e:	681b      	ldr	r3, [r3, #0]
			DEBUG_PRINT("setting node group ID failed");
			strncpy(reason, "Error setting node ID", 50);
			proceed invalid_node_id;
		};

		proceed menu;
     670:	2001      	movs	r0, #1
    node->gid = gid; 
     672:	805a      	strh	r2, [r3, #2]
		proceed menu;
     674:	f001 f8c0 	bl	17f8 <proceed>

	state get_new_node_id:
		ser_out(get_new_node_id, "\r\nPlease provide a new node ID# (1-25 inclusive): ");
     678:	2005      	movs	r0, #5
     67a:	494e      	ldr	r1, [pc, #312]	; (7b4 <root+0x260>)
     67c:	f001 ff78 	bl	2570 <ser_out>
	state new_node_id:
		uint8_t NEW_NODE_ID;
		ser_inf(new_node_id, "%u", &NEW_NODE_ID);

		// Bool condition, check for failure
		if (!set_node_id(node_db, NEW_NODE_ID)) {
     680:	4d41      	ldr	r5, [pc, #260]	; (788 <root+0x234>)
		ser_inf(new_node_id, "%u", &NEW_NODE_ID);
     682:	494a      	ldr	r1, [pc, #296]	; (7ac <root+0x258>)
     684:	aa03      	add	r2, sp, #12
     686:	2006      	movs	r0, #6
     688:	f002 f80e 	bl	26a8 <ser_inf>
		if (!set_node_id(node_db, NEW_NODE_ID)) {
     68c:	682a      	ldr	r2, [r5, #0]
     68e:	f89d 100c 	ldrb.w	r1, [sp, #12]
    node->id = id;
     692:	7011      	strb	r1, [r2, #0]
			strncpy(reason, "Error setting node ID", 50);
			proceed invalid_node_id;
		};
		
		// Check to see if the number given is within range.
		if((node_db->id < 1) || (node_db->id > 25)){
     694:	682a      	ldr	r2, [r5, #0]
     696:	7812      	ldrb	r2, [r2, #0]
     698:	3a01      	subs	r2, #1
     69a:	2a18      	cmp	r2, #24
     69c:	d907      	bls.n	6ae <root+0x15a>
			strncpy(reason, "Out of Range", 50);
     69e:	4846      	ldr	r0, [pc, #280]	; (7b8 <root+0x264>)
     6a0:	2232      	movs	r2, #50	; 0x32
     6a2:	4946      	ldr	r1, [pc, #280]	; (7bc <root+0x268>)
     6a4:	f001 f935 	bl	1912 <__pi_strncpy>
			proceed invalid_node_id;
     6a8:	2007      	movs	r0, #7
     6aa:	f001 f8a5 	bl	17f8 <proceed>
fsm root {
     6ae:	2400      	movs	r4, #0
		};
		
		// Check to see if the number give is unique
		for(int i = 0; i < node_db->index; i++){
			if(node_db->id == node_db->nnodes[i]){
				strncpy(reason, "ID is already in use", 50);
     6b0:	4e43      	ldr	r6, [pc, #268]	; (7c0 <root+0x26c>)
     6b2:	4f41      	ldr	r7, [pc, #260]	; (7b8 <root+0x264>)
		for(int i = 0; i < node_db->index; i++){
     6b4:	682b      	ldr	r3, [r5, #0]
     6b6:	f893 2481 	ldrb.w	r2, [r3, #1153]	; 0x481
     6ba:	42a2      	cmp	r2, r4
     6bc:	dc43      	bgt.n	746 <root+0x1f2>
				proceed invalid_node_id;
			};
		};
		
		proceed menu;
     6be:	2001      	movs	r0, #1
     6c0:	f001 f89a 	bl	17f8 <proceed>

	// NOTE: to prevent unwanted behaviour, we will likely want to clear the array in here
	state invalid_node_id:
		// NOTE: node_db->id will not be set if they provide an invalid reason, so we can't do this like this
		ser_outf(invalid_node_id, "\r\nID#: %u, is an invalid choice. Reason: %s.", node_db->id, reason);
     6c4:	4b30      	ldr	r3, [pc, #192]	; (788 <root+0x234>)
     6c6:	2007      	movs	r0, #7
     6c8:	681a      	ldr	r2, [r3, #0]
     6ca:	493e      	ldr	r1, [pc, #248]	; (7c4 <root+0x270>)
     6cc:	4b3a      	ldr	r3, [pc, #232]	; (7b8 <root+0x264>)
     6ce:	7812      	ldrb	r2, [r2, #0]
     6d0:	f001 ffc0 	bl	2654 <ser_outf>
		proceed get_new_node_id;
     6d4:	2005      	movs	r0, #5
     6d6:	f001 f88f 	bl	17f8 <proceed>
		   
	  Then prints the list of neighbours
	
	*/
	state clear_neighbour_array:
		if (!clear_node_neighbour_array(node_db)){
     6da:	4b2b      	ldr	r3, [pc, #172]	; (788 <root+0x234>)
     6dc:	6818      	ldr	r0, [r3, #0]
     6de:	f7ff fd6a 	bl	1b6 <clear_node_neighbour_array>
     6e2:	b938      	cbnz	r0, 6f4 <root+0x1a0>
			strncpy(reason, "Error Clearing Node Array", 50);
     6e4:	4834      	ldr	r0, [pc, #208]	; (7b8 <root+0x264>)
     6e6:	2232      	movs	r2, #50	; 0x32
     6e8:	4937      	ldr	r1, [pc, #220]	; (7c8 <root+0x274>)
     6ea:	f001 f912 	bl	1912 <__pi_strncpy>
			proceed error;
     6ee:	2020      	movs	r0, #32
     6f0:	f001 f882 	bl	17f8 <proceed>
		};

	state find_proto_start:

		struct ResponseMessage *request_packet;
		request_packet = (struct ResponseMessage*)umalloc(sizeof(struct ResponseMessage));
     6f4:	201e      	movs	r0, #30
     6f6:	f001 f9ff 	bl	1af8 <__pi_malloc>

		request_packet->gid = node_db->gid;
		request_packet->tpe = DISCOVERY_REQUEST;
     6fa:	2500      	movs	r5, #0
		request_packet->gid = node_db->gid;
     6fc:	4e22      	ldr	r6, [pc, #136]	; (788 <root+0x234>)
		request_packet = (struct ResponseMessage*)umalloc(sizeof(struct ResponseMessage));
     6fe:	4604      	mov	r4, r0
		request_packet->gid = node_db->gid;
     700:	6833      	ldr	r3, [r6, #0]
     702:	885b      	ldrh	r3, [r3, #2]
		request_packet->tpe = DISCOVERY_REQUEST;
     704:	7085      	strb	r5, [r0, #2]
		request_packet->gid = node_db->gid;
     706:	8003      	strh	r3, [r0, #0]
		request_packet->request_number = generate_request_num();
     708:	f7ff fd4c 	bl	1a4 <generate_request_num>
     70c:	70e0      	strb	r0, [r4, #3]
		request_packet->sender_id = node_db->id;
     70e:	6833      	ldr	r3, [r6, #0]
		request_packet->receiver_id=0;

		call sender(request_packet, wait_discovery);
     710:	4621      	mov	r1, r4
		request_packet->sender_id = node_db->id;
     712:	781b      	ldrb	r3, [r3, #0]
		call sender(request_packet, wait_discovery);
     714:	482d      	ldr	r0, [pc, #180]	; (7cc <root+0x278>)
		request_packet->sender_id = node_db->id;
     716:	7123      	strb	r3, [r4, #4]
		request_packet->receiver_id=0;
     718:	7165      	strb	r5, [r4, #5]
		call sender(request_packet, wait_discovery);
     71a:	f001 fa41 	bl	1ba0 <__pi_fork>
     71e:	210a      	movs	r1, #10
     720:	f001 f8a8 	bl	1874 <__pi_join>
     724:	b1f8      	cbz	r0, 766 <root+0x212>
	
	state wait_discovery:
		if (discovery_wait_flag == 0){
			discovery_wait_flag=1;
			delay(3000, find_proto_start);
			release;
     726:	f000 fe01 	bl	132c <__pi_release>
				proceed get_new_node_id;
     72a:	2005      	movs	r0, #5
     72c:	e78e      	b.n	64c <root+0xf8>
				proceed clear_neighbour_array;
     72e:	2008      	movs	r0, #8
     730:	e78c      	b.n	64c <root+0xf8>
				proceed create_proto_start;
     732:	200c      	movs	r0, #12
     734:	e78a      	b.n	64c <root+0xf8>
				proceed start_delete_proto;
     736:	2011      	movs	r0, #17
     738:	e788      	b.n	64c <root+0xf8>
				proceed retrieve_proto;
     73a:	201a      	movs	r0, #26
     73c:	e786      	b.n	64c <root+0xf8>
				proceed display_db;
     73e:	201b      	movs	r0, #27
     740:	e784      	b.n	64c <root+0xf8>
				proceed del_local;
     742:	201d      	movs	r0, #29
     744:	e782      	b.n	64c <root+0xf8>
			if(node_db->id == node_db->nnodes[i]){
     746:	1919      	adds	r1, r3, r4
     748:	781a      	ldrb	r2, [r3, #0]
     74a:	f891 3468 	ldrb.w	r3, [r1, #1128]	; 0x468
     74e:	429a      	cmp	r2, r3
     750:	d107      	bne.n	762 <root+0x20e>
				strncpy(reason, "ID is already in use", 50);
     752:	4638      	mov	r0, r7
     754:	2232      	movs	r2, #50	; 0x32
     756:	4631      	mov	r1, r6
     758:	f001 f8db 	bl	1912 <__pi_strncpy>
				proceed invalid_node_id;
     75c:	2007      	movs	r0, #7
     75e:	f001 f84b 	bl	17f8 <proceed>
		for(int i = 0; i < node_db->index; i++){
     762:	3401      	adds	r4, #1
     764:	e7a6      	b.n	6b4 <root+0x160>
		if (discovery_wait_flag == 0){
     766:	4b1a      	ldr	r3, [pc, #104]	; (7d0 <root+0x27c>)
     768:	681a      	ldr	r2, [r3, #0]
     76a:	b93a      	cbnz	r2, 77c <root+0x228>
			discovery_wait_flag=1;
     76c:	2201      	movs	r2, #1
			delay(3000, find_proto_start);
     76e:	2109      	movs	r1, #9
			discovery_wait_flag=1;
     770:	601a      	str	r2, [r3, #0]
			delay(3000, find_proto_start);
     772:	f640 30b8 	movw	r0, #3000	; 0xbb8
     776:	f001 f88f 	bl	1898 <delay>
     77a:	e7d4      	b.n	726 <root+0x1d2>
		}
		if (discovery_wait_flag == 1){
     77c:	2a01      	cmp	r2, #1
     77e:	d129      	bne.n	7d4 <root+0x280>
			discovery_wait_flag=0;
     780:	2200      	movs	r2, #0
			delay(3000, display_neighbour_nodes);
     782:	210b      	movs	r1, #11
			discovery_wait_flag=0;
     784:	601a      	str	r2, [r3, #0]
			delay(3000, display_neighbour_nodes);
     786:	e7f4      	b.n	772 <root+0x21e>
     788:	2000069c 	mulcs	r0, ip, r6
     78c:	00005a04 	andeq	r5, r0, r4, lsl #20
     790:	20000000 	andcs	r0, r0, r0
     794:	00004b74 	andeq	r4, r0, r4, ror fp
     798:	000001e9 	andeq	r0, r0, r9, ror #3
     79c:	00004b8e 	andeq	r4, r0, lr, lsl #23
     7a0:	2000069a 	mulcs	r0, sl, r6
     7a4:	00004c7a 	andeq	r4, r0, sl, ror ip
     7a8:	00004c7d 	andeq	r4, r0, sp, ror ip
     7ac:	00004993 	muleq	r0, r3, r9
     7b0:	00004c9e 	muleq	r0, lr, ip
     7b4:	00004cb4 			; <UNDEFINED> instruction: 0x00004cb4
     7b8:	20000668 	andcs	r0, r0, r8, ror #12
     7bc:	00004ce7 	andeq	r4, r0, r7, ror #25
     7c0:	00004cf4 	strdeq	r4, [r0], -r4	; <UNPREDICTABLE>
     7c4:	00004d09 	andeq	r4, r0, r9, lsl #26
     7c8:	00004d36 	andeq	r4, r0, r6, lsr sp
     7cc:	000000c9 	andeq	r0, r0, r9, asr #1
     7d0:	20000554 	andcs	r0, r0, r4, asr r5
			release;
		}
	
	state display_neighbour_nodes:
		ser_out(display_neighbour_nodes, "\r\nNeighbors: ");
     7d4:	200b      	movs	r0, #11
     7d6:	49a8      	ldr	r1, [pc, #672]	; (a78 <root+0x524>)
     7d8:	f001 feca 	bl	2570 <ser_out>
		for (int i=0; i<NNODE_GROUP_SIZE; i++) {
     7dc:	2400      	movs	r4, #0
			if (node_db->nnodes[i] == 0) break;
     7de:	4ea7      	ldr	r6, [pc, #668]	; (a7c <root+0x528>)
			ser_outf(display_neighbour_nodes, "%u, ", node_db->nnodes[i]);
     7e0:	4da7      	ldr	r5, [pc, #668]	; (a80 <root+0x52c>)
			if (node_db->nnodes[i] == 0) break;
     7e2:	6833      	ldr	r3, [r6, #0]
     7e4:	4423      	add	r3, r4
     7e6:	f893 2468 	ldrb.w	r2, [r3, #1128]	; 0x468
     7ea:	b132      	cbz	r2, 7fa <root+0x2a6>
			ser_outf(display_neighbour_nodes, "%u, ", node_db->nnodes[i]);
     7ec:	4629      	mov	r1, r5
     7ee:	200b      	movs	r0, #11
		for (int i=0; i<NNODE_GROUP_SIZE; i++) {
     7f0:	3401      	adds	r4, #1
			ser_outf(display_neighbour_nodes, "%u, ", node_db->nnodes[i]);
     7f2:	f001 ff2f 	bl	2654 <ser_outf>
		for (int i=0; i<NNODE_GROUP_SIZE; i++) {
     7f6:	2c19      	cmp	r4, #25
     7f8:	d1f3      	bne.n	7e2 <root+0x28e>
		}
		proceed menu;
     7fa:	2001      	movs	r0, #1
     7fc:	f000 fffc 	bl	17f8 <proceed>
		4) if no repsone is received, the node indicates this to the user through UART
		5) if a response is received, the node sends through UART the appropriate response message
	
	*/
	state create_proto_start:
		ser_out(create_proto_start, "Please provide a node ID (0-25): ");
     800:	200c      	movs	r0, #12
     802:	49a0      	ldr	r1, [pc, #640]	; (a84 <root+0x530>)
     804:	f001 feb4 	bl	2570 <ser_out>

	state get_id_for_create:
		ser_inf(get_id_for_create, "%d", &user_provided_receiver_id);
     808:	4c9f      	ldr	r4, [pc, #636]	; (a88 <root+0x534>)
     80a:	200d      	movs	r0, #13
     80c:	4622      	mov	r2, r4
     80e:	499f      	ldr	r1, [pc, #636]	; (a8c <root+0x538>)
     810:	f001 ff4a 	bl	26a8 <ser_inf>

		if ((user_provided_receiver_id < 1) || (user_provided_receiver_id > 25)){
     814:	7823      	ldrb	r3, [r4, #0]
     816:	3b01      	subs	r3, #1
     818:	2b18      	cmp	r3, #24
     81a:	d907      	bls.n	82c <root+0x2d8>
			strncpy(reason, "Error: improper ID", 50);
     81c:	489c      	ldr	r0, [pc, #624]	; (a90 <root+0x53c>)
     81e:	2232      	movs	r2, #50	; 0x32
     820:	499c      	ldr	r1, [pc, #624]	; (a94 <root+0x540>)
     822:	f001 f876 	bl	1912 <__pi_strncpy>
			proceed error;
     826:	2020      	movs	r0, #32
     828:	f000 ffe6 	bl	17f8 <proceed>
		};

	state ask_for_record_to_create:
		ser_out(ask_for_record_to_create, "Please provide a record (length <= 20): ");
     82c:	200e      	movs	r0, #14
     82e:	499a      	ldr	r1, [pc, #616]	; (a98 <root+0x544>)
     830:	f001 fe9e 	bl	2570 <ser_out>

	state get_record_to_create:
		ser_in(get_record_to_create, user_provided_record, 20);
     834:	2214      	movs	r2, #20
     836:	200f      	movs	r0, #15
     838:	4998      	ldr	r1, [pc, #608]	; (a9c <root+0x548>)
     83a:	f001 fecf 	bl	25dc <ser_in>

	state init_create_record_message:

		struct ResponseMessage *create_message;
		create_message = (struct ResponseMessage*)umalloc(sizeof(struct ResponseMessage));
     83e:	201e      	movs	r0, #30
     840:	f001 f95a 	bl	1af8 <__pi_malloc>
		create_message->gid = node_db->gid;
     844:	4d8d      	ldr	r5, [pc, #564]	; (a7c <root+0x528>)
		create_message = (struct ResponseMessage*)umalloc(sizeof(struct ResponseMessage));
     846:	4604      	mov	r4, r0
		create_message->gid = node_db->gid;
     848:	682b      	ldr	r3, [r5, #0]
     84a:	885b      	ldrh	r3, [r3, #2]
     84c:	8003      	strh	r3, [r0, #0]
		create_message->tpe = 2;
     84e:	2302      	movs	r3, #2
     850:	7083      	strb	r3, [r0, #2]
		create_message->request_number = generate_request_num();
     852:	f7ff fca7 	bl	1a4 <generate_request_num>
     856:	70e0      	strb	r0, [r4, #3]
		create_message->sender_id = node_db->id;
     858:	682b      	ldr	r3, [r5, #0]
		create_message->receiver_id = user_provided_receiver_id;
		strncpy(create_message->record, user_provided_record, 20);
     85a:	2214      	movs	r2, #20
		create_message->sender_id = node_db->id;
     85c:	781b      	ldrb	r3, [r3, #0]
		strncpy(create_message->record, user_provided_record, 20);
     85e:	498f      	ldr	r1, [pc, #572]	; (a9c <root+0x548>)
		create_message->sender_id = node_db->id;
     860:	7123      	strb	r3, [r4, #4]
		create_message->receiver_id = user_provided_receiver_id;
     862:	4b89      	ldr	r3, [pc, #548]	; (a88 <root+0x534>)
		strncpy(create_message->record, user_provided_record, 20);
     864:	f104 0008 	add.w	r0, r4, #8
		create_message->receiver_id = user_provided_receiver_id;
     868:	781b      	ldrb	r3, [r3, #0]
     86a:	7163      	strb	r3, [r4, #5]
		strncpy(create_message->record, user_provided_record, 20);
     86c:	f001 f851 	bl	1912 <__pi_strncpy>
		
		// Store create message type & request number for response message parsing
		response_checker[0] = create_message->request_number;
     870:	78e2      	ldrb	r2, [r4, #3]
     872:	4b8b      	ldr	r3, [pc, #556]	; (aa0 <root+0x54c>)
		response_checker[1] = create_message->tpe;

		call sender(create_message, wait);
     874:	4621      	mov	r1, r4
		response_checker[0] = create_message->request_number;
     876:	601a      	str	r2, [r3, #0]
		response_checker[1] = create_message->tpe;
     878:	78a2      	ldrb	r2, [r4, #2]
		call sender(create_message, wait);
     87a:	488a      	ldr	r0, [pc, #552]	; (aa4 <root+0x550>)
		response_checker[1] = create_message->tpe;
     87c:	605a      	str	r2, [r3, #4]
		call sender(create_message, wait);
     87e:	f001 f98f 	bl	1ba0 <__pi_fork>
     882:	211e      	movs	r1, #30
     884:	f000 fff6 	bl	1874 <__pi_join>
     888:	2800      	cmp	r0, #0
     88a:	f47f af4c 	bne.w	726 <root+0x1d2>
		3.The node then waits to receive the response message with a maximum waiting interval of 3 seconds 
		4.If no response is received, the node sends the following message through the UART \r\nFailed to reach the destination
		5.
	*/
	state start_delete_proto:
		ser_out(start_delete_proto, "Please provide a node ID (0-25): ");
     88e:	2011      	movs	r0, #17
     890:	497c      	ldr	r1, [pc, #496]	; (a84 <root+0x530>)
     892:	f001 fe6d 	bl	2570 <ser_out>

	state get_id_for_delete:
		ser_inf(get_id_for_delete, "%d", &user_provided_receiver_id);
     896:	4c7c      	ldr	r4, [pc, #496]	; (a88 <root+0x534>)
     898:	2012      	movs	r0, #18
     89a:	4622      	mov	r2, r4
     89c:	497b      	ldr	r1, [pc, #492]	; (a8c <root+0x538>)
     89e:	f001 ff03 	bl	26a8 <ser_inf>

		if ((user_provided_receiver_id < 1) || (user_provided_receiver_id > 25)){
     8a2:	7823      	ldrb	r3, [r4, #0]
     8a4:	3b01      	subs	r3, #1
     8a6:	2b18      	cmp	r3, #24
     8a8:	d907      	bls.n	8ba <root+0x366>
			strncpy(reason, "Error: improper node ID", 50);
     8aa:	4879      	ldr	r0, [pc, #484]	; (a90 <root+0x53c>)
     8ac:	2232      	movs	r2, #50	; 0x32
     8ae:	497e      	ldr	r1, [pc, #504]	; (aa8 <root+0x554>)
     8b0:	f001 f82f 	bl	1912 <__pi_strncpy>
			proceed error;
     8b4:	2020      	movs	r0, #32
     8b6:	f000 ff9f 	bl	17f8 <proceed>
		};

	state ask_for_record_index:
		ser_out(ask_for_record_index, "Please provide the record index (0-40): ");
     8ba:	2013      	movs	r0, #19
     8bc:	497b      	ldr	r1, [pc, #492]	; (aac <root+0x558>)
     8be:	f001 fe57 	bl	2570 <ser_out>

	state get_index_for_delete:
		ser_inf(get_index_for_delete, "%d", &user_provided_index);
     8c2:	4c7b      	ldr	r4, [pc, #492]	; (ab0 <root+0x55c>)
     8c4:	2014      	movs	r0, #20
     8c6:	4622      	mov	r2, r4
     8c8:	4970      	ldr	r1, [pc, #448]	; (a8c <root+0x538>)
     8ca:	f001 feed 	bl	26a8 <ser_inf>

		if (user_provided_index < 0 || user_provided_index > 40){
     8ce:	7823      	ldrb	r3, [r4, #0]
     8d0:	2b28      	cmp	r3, #40	; 0x28
     8d2:	d907      	bls.n	8e4 <root+0x390>
			strncpy(reason, "Error: invalid index", 50);
     8d4:	486e      	ldr	r0, [pc, #440]	; (a90 <root+0x53c>)
     8d6:	2232      	movs	r2, #50	; 0x32
     8d8:	4976      	ldr	r1, [pc, #472]	; (ab4 <root+0x560>)
     8da:	f001 f81a 	bl	1912 <__pi_strncpy>
			proceed error;
     8de:	2020      	movs	r0, #32
     8e0:	f000 ff8a 	bl	17f8 <proceed>
		};

	state init_delete_record_message:

		struct ResponseMessage *delete_record;
		delete_record = (struct ResponseMessage *)umalloc(sizeof(struct ResponseMessage));
     8e4:	201e      	movs	r0, #30
     8e6:	f001 f907 	bl	1af8 <__pi_malloc>
		delete_record->gid = node_db->gid;
		delete_record->tpe = DELETE_RECORD;
     8ea:	2203      	movs	r2, #3
		delete_record->gid = node_db->gid;
     8ec:	4c63      	ldr	r4, [pc, #396]	; (a7c <root+0x528>)
		delete_record = (struct ResponseMessage *)umalloc(sizeof(struct ResponseMessage));
     8ee:	9002      	str	r0, [sp, #8]
		delete_record->gid = node_db->gid;
     8f0:	6823      	ldr	r3, [r4, #0]
     8f2:	885b      	ldrh	r3, [r3, #2]
     8f4:	8003      	strh	r3, [r0, #0]
		delete_record->tpe = DELETE_RECORD;
     8f6:	9b02      	ldr	r3, [sp, #8]
     8f8:	709a      	strb	r2, [r3, #2]
		delete_record->request_number = generate_request_num();
     8fa:	9d02      	ldr	r5, [sp, #8]
     8fc:	f7ff fc52 	bl	1a4 <generate_request_num>
     900:	70e8      	strb	r0, [r5, #3]
		delete_record->sender_id = node_db->id;
     902:	6822      	ldr	r2, [r4, #0]
     904:	9b02      	ldr	r3, [sp, #8]
     906:	7812      	ldrb	r2, [r2, #0]
		delete_record->receiver_id = user_provided_receiver_id;
		delete_record->record_index = user_provided_index;
		// NOTE: something to do with padding here?

		// Store delete record message type & request number for response message parsing
		response_checker[0] = delete_record->request_number;
     908:	78d9      	ldrb	r1, [r3, #3]
		delete_record->sender_id = node_db->id;
     90a:	711a      	strb	r2, [r3, #4]
		delete_record->receiver_id = user_provided_receiver_id;
     90c:	4a5e      	ldr	r2, [pc, #376]	; (a88 <root+0x534>)
		response_checker[1] = delete_record->tpe;

		call sender(&delete_record, wait);
     90e:	4865      	ldr	r0, [pc, #404]	; (aa4 <root+0x550>)
		delete_record->receiver_id = user_provided_receiver_id;
     910:	7812      	ldrb	r2, [r2, #0]
     912:	715a      	strb	r2, [r3, #5]
		delete_record->record_index = user_provided_index;
     914:	4a66      	ldr	r2, [pc, #408]	; (ab0 <root+0x55c>)
     916:	7812      	ldrb	r2, [r2, #0]
     918:	771a      	strb	r2, [r3, #28]
		response_checker[0] = delete_record->request_number;
     91a:	4a61      	ldr	r2, [pc, #388]	; (aa0 <root+0x54c>)
     91c:	6011      	str	r1, [r2, #0]
		response_checker[1] = delete_record->tpe;
     91e:	789b      	ldrb	r3, [r3, #2]
		call sender(&delete_record, wait);
     920:	a902      	add	r1, sp, #8
		response_checker[1] = delete_record->tpe;
     922:	6053      	str	r3, [r2, #4]
		call sender(&delete_record, wait);
     924:	f001 f93c 	bl	1ba0 <__pi_fork>
     928:	211e      	movs	r1, #30
     92a:	f000 ffa3 	bl	1874 <__pi_join>
     92e:	2800      	cmp	r0, #0
     930:	f47f aef9 	bne.w	726 <root+0x1d2>
		3.The node then waits to receive the response message with a maximum waiting interval of 3 seconds 
		4.If no response is received, the node sends the following message through the UART \r\nFailed to reach the destination
		5.
	*/
	state start_retrieve_proto:
		ser_out(start_retrieve_proto, "Please provide a node ID (0-25): ");
     934:	2016      	movs	r0, #22
     936:	4953      	ldr	r1, [pc, #332]	; (a84 <root+0x530>)
     938:	f001 fe1a 	bl	2570 <ser_out>

	state get_id_for_retrieve:
		ser_inf(get_id_for_retrieve, "%d", &user_provided_receiver_id);
     93c:	4c52      	ldr	r4, [pc, #328]	; (a88 <root+0x534>)
     93e:	2017      	movs	r0, #23
     940:	4622      	mov	r2, r4
     942:	4952      	ldr	r1, [pc, #328]	; (a8c <root+0x538>)
     944:	f001 feb0 	bl	26a8 <ser_inf>

		if (user_provided_receiver_id < 1 || user_provided_receiver_id > 25){
     948:	7823      	ldrb	r3, [r4, #0]
     94a:	3b01      	subs	r3, #1
     94c:	2b18      	cmp	r3, #24
     94e:	d907      	bls.n	960 <root+0x40c>
			strncpy(reason, "Error: improper node ID", 50);
     950:	484f      	ldr	r0, [pc, #316]	; (a90 <root+0x53c>)
     952:	2232      	movs	r2, #50	; 0x32
     954:	4954      	ldr	r1, [pc, #336]	; (aa8 <root+0x554>)
     956:	f000 ffdc 	bl	1912 <__pi_strncpy>
			proceed error;
     95a:	2020      	movs	r0, #32
     95c:	f000 ff4c 	bl	17f8 <proceed>
		};

	state ask_for_record_retrieve_index:
		ser_out(ask_for_record_retrieve_index, "Please provide the record index (0-40): ");
     960:	2018      	movs	r0, #24
     962:	4952      	ldr	r1, [pc, #328]	; (aac <root+0x558>)
     964:	f001 fe04 	bl	2570 <ser_out>

	state get_index_for_retrieve:
		ser_inf(get_index_for_retrieve, "%d", &user_provided_index);
     968:	4c51      	ldr	r4, [pc, #324]	; (ab0 <root+0x55c>)
     96a:	2019      	movs	r0, #25
     96c:	4622      	mov	r2, r4
     96e:	4947      	ldr	r1, [pc, #284]	; (a8c <root+0x538>)
     970:	f001 fe9a 	bl	26a8 <ser_inf>

		if (user_provided_index < 0 || user_provided_index > 40){
     974:	7823      	ldrb	r3, [r4, #0]
     976:	2b28      	cmp	r3, #40	; 0x28
     978:	d907      	bls.n	98a <root+0x436>
			strncpy(reason, "Error: invalid index", 50);
     97a:	4845      	ldr	r0, [pc, #276]	; (a90 <root+0x53c>)
     97c:	2232      	movs	r2, #50	; 0x32
     97e:	494d      	ldr	r1, [pc, #308]	; (ab4 <root+0x560>)
     980:	f000 ffc7 	bl	1912 <__pi_strncpy>
			proceed error;
     984:	2020      	movs	r0, #32
     986:	f000 ff37 	bl	17f8 <proceed>
		};

	state retrieve_proto:

		struct ResponseMessage *retrieve_record;
		retrieve_record = (struct ResponseMessage *)umalloc(sizeof(struct ResponseMessage));
     98a:	201e      	movs	r0, #30
     98c:	f001 f8b4 	bl	1af8 <__pi_malloc>
		retrieve_record->gid = node_db->gid;
		retrieve_record->tpe = RETRIEVE_RECORD;
     990:	2204      	movs	r2, #4
		retrieve_record->gid = node_db->gid;
     992:	4c3a      	ldr	r4, [pc, #232]	; (a7c <root+0x528>)
		retrieve_record = (struct ResponseMessage *)umalloc(sizeof(struct ResponseMessage));
     994:	9003      	str	r0, [sp, #12]
		retrieve_record->gid = node_db->gid;
     996:	6823      	ldr	r3, [r4, #0]
     998:	885b      	ldrh	r3, [r3, #2]
     99a:	8003      	strh	r3, [r0, #0]
		retrieve_record->tpe = RETRIEVE_RECORD;
     99c:	9b03      	ldr	r3, [sp, #12]
     99e:	709a      	strb	r2, [r3, #2]
		retrieve_record->request_number = generate_request_num();
     9a0:	9d03      	ldr	r5, [sp, #12]
     9a2:	f7ff fbff 	bl	1a4 <generate_request_num>
     9a6:	70e8      	strb	r0, [r5, #3]
		retrieve_record->sender_id = node_db->id;
     9a8:	6822      	ldr	r2, [r4, #0]
     9aa:	9b03      	ldr	r3, [sp, #12]
     9ac:	7812      	ldrb	r2, [r2, #0]
		retrieve_record->receiver_id = user_provided_receiver_id;
		retrieve_record->record_index = user_provided_index;
		// NOTE: something to do with padding here?

		// Store retrieve record message type & request number for response message parsing
		response_checker[0] = retrieve_record->request_number;
     9ae:	78d9      	ldrb	r1, [r3, #3]
		retrieve_record->sender_id = node_db->id;
     9b0:	711a      	strb	r2, [r3, #4]
		retrieve_record->receiver_id = user_provided_receiver_id;
     9b2:	4a35      	ldr	r2, [pc, #212]	; (a88 <root+0x534>)
		response_checker[1] = retrieve_record->tpe;
		
		call sender(&retrieve_record, wait);
     9b4:	483b      	ldr	r0, [pc, #236]	; (aa4 <root+0x550>)
		retrieve_record->receiver_id = user_provided_receiver_id;
     9b6:	7812      	ldrb	r2, [r2, #0]
     9b8:	715a      	strb	r2, [r3, #5]
		retrieve_record->record_index = user_provided_index;
     9ba:	4a3d      	ldr	r2, [pc, #244]	; (ab0 <root+0x55c>)
     9bc:	7812      	ldrb	r2, [r2, #0]
     9be:	771a      	strb	r2, [r3, #28]
		response_checker[0] = retrieve_record->request_number;
     9c0:	4a37      	ldr	r2, [pc, #220]	; (aa0 <root+0x54c>)
     9c2:	6011      	str	r1, [r2, #0]
		response_checker[1] = retrieve_record->tpe;
     9c4:	789b      	ldrb	r3, [r3, #2]
		call sender(&retrieve_record, wait);
     9c6:	a903      	add	r1, sp, #12
		response_checker[1] = retrieve_record->tpe;
     9c8:	6053      	str	r3, [r2, #4]
		call sender(&retrieve_record, wait);
     9ca:	f001 f8e9 	bl	1ba0 <__pi_fork>
     9ce:	211e      	movs	r1, #30
     9d0:	f000 ff50 	bl	1874 <__pi_join>
     9d4:	2800      	cmp	r0, #0
     9d6:	f47f aea6 	bne.w	726 <root+0x1d2>
		
	state display_db:
		ser_out(display_db, "\r\nIndex\tTime Stamp\t\tOwner ID\tRecord Data");
     9da:	201b      	movs	r0, #27
     9dc:	4936      	ldr	r1, [pc, #216]	; (ab8 <root+0x564>)
     9de:	f001 fdc7 	bl	2570 <ser_out>
		
	state loop_through_data:
		if(node_db->data_base.item_count != 0){
     9e2:	4d26      	ldr	r5, [pc, #152]	; (a7c <root+0x528>)
     9e4:	682a      	ldr	r2, [r5, #0]
     9e6:	f892 2464 	ldrb.w	r2, [r2, #1124]	; 0x464
     9ea:	bb62      	cbnz	r2, a46 <root+0x4f2>
			for(int i = 0; i <= node_db->data_base.item_count; i++){
				ser_outf(loop_through_data, "\r\n%d\t%d\t\t\t%d\t%s", i, node_db->data_base.item_array[i].timestamp, node_db->data_base.item_array[i].owner_id, node_db->data_base.item_array[i].data_entry);
			}
		}
		ser_out(loop_through_data, "\r\n");
     9ec:	201c      	movs	r0, #28
     9ee:	4933      	ldr	r1, [pc, #204]	; (abc <root+0x568>)
     9f0:	f001 fdbe 	bl	2570 <ser_out>
		proceed menu;
     9f4:	2001      	movs	r0, #1
     9f6:	f000 feff 	bl	17f8 <proceed>

	state del_local:
		delete_all(node_db);
     9fa:	4b20      	ldr	r3, [pc, #128]	; (a7c <root+0x528>)
     9fc:	6818      	ldr	r0, [r3, #0]
     9fe:	f7ff fd95 	bl	52c <delete_all>
		proceed menu;
     a02:	2001      	movs	r0, #1
     a04:	f000 fef8 	bl	17f8 <proceed>

	state wait:
		delay(3000, timeout);
     a08:	211f      	movs	r1, #31
     a0a:	f640 30b8 	movw	r0, #3000	; 0xbb8
     a0e:	f000 ff43 	bl	1898 <delay>
		when(&response_flag, menu);
     a12:	2101      	movs	r1, #1
     a14:	482a      	ldr	r0, [pc, #168]	; (ac0 <root+0x56c>)
     a16:	f000 fef9 	bl	180c <__pi_wait>
		release;
     a1a:	e684      	b.n	726 <root+0x1d2>
				ser_outf(loop_through_data, "\r\n%d\t%d\t\t\t%d\t%s", i, node_db->data_base.item_array[i].timestamp, node_db->data_base.item_array[i].owner_id, node_db->data_base.item_array[i].data_entry);
     a1c:	fb06 f204 	mul.w	r2, r6, r4
     a20:	1898      	adds	r0, r3, r2
     a22:	3205      	adds	r2, #5
     a24:	4413      	add	r3, r2
     a26:	9301      	str	r3, [sp, #4]
     a28:	7903      	ldrb	r3, [r0, #4]
     a2a:	4622      	mov	r2, r4
     a2c:	9300      	str	r3, [sp, #0]
     a2e:	69c3      	ldr	r3, [r0, #28]
     a30:	4639      	mov	r1, r7
     a32:	201c      	movs	r0, #28
     a34:	f001 fe0e 	bl	2654 <ser_outf>
			for(int i = 0; i <= node_db->data_base.item_count; i++){
     a38:	3401      	adds	r4, #1
     a3a:	682b      	ldr	r3, [r5, #0]
     a3c:	f893 2464 	ldrb.w	r2, [r3, #1124]	; 0x464
     a40:	42a2      	cmp	r2, r4
     a42:	daeb      	bge.n	a1c <root+0x4c8>
     a44:	e7d2      	b.n	9ec <root+0x498>
     a46:	2400      	movs	r4, #0
				ser_outf(loop_through_data, "\r\n%d\t%d\t\t\t%d\t%s", i, node_db->data_base.item_array[i].timestamp, node_db->data_base.item_array[i].owner_id, node_db->data_base.item_array[i].data_entry);
     a48:	261c      	movs	r6, #28
     a4a:	4f1e      	ldr	r7, [pc, #120]	; (ac4 <root+0x570>)
     a4c:	e7f5      	b.n	a3a <root+0x4e6>
	
	state timeout:
		ser_out(timeout, "\r\nFailed to reach the destination");
     a4e:	201f      	movs	r0, #31
     a50:	491d      	ldr	r1, [pc, #116]	; (ac8 <root+0x574>)
     a52:	f001 fd8d 	bl	2570 <ser_out>
		proceed menu;
     a56:	2001      	movs	r0, #1
     a58:	f000 fece 	bl	17f8 <proceed>
	
	// NOTE: to prevent unwanted behaviour, we will likely want to clear the array in here
	state error:
		ser_outf(invalid_node_id, "\r\nError: %s", reason);
     a5c:	2007      	movs	r0, #7
     a5e:	4a0c      	ldr	r2, [pc, #48]	; (a90 <root+0x53c>)
     a60:	491a      	ldr	r1, [pc, #104]	; (acc <root+0x578>)
     a62:	f001 fdf7 	bl	2654 <ser_outf>
		proceed menu;
     a66:	2001      	movs	r0, #1
     a68:	f000 fec6 	bl	17f8 <proceed>
}
     a6c:	b005      	add	sp, #20
     a6e:	bdf0      	pop	{r4, r5, r6, r7, pc}
     a70:	f000 fe3a 	bl	16e8 <__pi_badstate>
     a74:	e7fa      	b.n	a6c <root+0x518>
     a76:	bf00      	nop
     a78:	00004d50 	andeq	r4, r0, r0, asr sp
     a7c:	2000069c 	mulcs	r0, ip, r6
     a80:	00004d5e 	andeq	r4, r0, lr, asr sp
     a84:	00004d63 	andeq	r4, r0, r3, ror #26
     a88:	20000569 	andcs	r0, r0, r9, ror #10
     a8c:	0000508b 	andeq	r5, r0, fp, lsl #1
     a90:	20000668 	andcs	r0, r0, r8, ror #12
     a94:	00004d85 	andeq	r4, r0, r5, lsl #27
     a98:	00004d98 	muleq	r0, r8, sp
     a9c:	2000056a 	andcs	r0, r0, sl, ror #10
     aa0:	20000660 	andcs	r0, r0, r0, ror #12
     aa4:	000000c9 	andeq	r0, r0, r9, asr #1
     aa8:	00004dc1 	andeq	r4, r0, r1, asr #27
     aac:	00004dd9 	ldrdeq	r4, [r0], -r9
     ab0:	20000568 	andcs	r0, r0, r8, ror #10
     ab4:	00004e02 	andeq	r4, r0, r2, lsl #28
     ab8:	00004e17 	andeq	r4, r0, r7, lsl lr
     abc:	00004964 	andeq	r4, r0, r4, ror #18
     ac0:	20000560 	andcs	r0, r0, r0, ror #10
     ac4:	00004e40 	andeq	r4, r0, r0, asr #28
     ac8:	00004e50 	andeq	r4, r0, r0, asr lr
     acc:	00004e72 	andeq	r4, r0, r2, ror lr

00000ad0 <devinit_uart>:
			/* No return */
			return 0;
	}
}

static void devinit_uart (int devnum) {
     ad0:	4601      	mov	r1, r0

	adddevfunc (ioreq_uart_a, devnum);
     ad2:	4801      	ldr	r0, [pc, #4]	; (ad8 <devinit_uart+0x8>)
     ad4:	f000 bf3c 	b.w	1950 <adddevfunc>
     ad8:	00000e5d 	andeq	r0, r0, sp, asr lr

00000adc <udelay>:
void udelay (volatile word n) {
     adc:	b082      	sub	sp, #8
     ade:	f8ad 0006 	strh.w	r0, [sp, #6]
	while (n) {
     ae2:	f8bd 3006 	ldrh.w	r3, [sp, #6]
     ae6:	b29b      	uxth	r3, r3
     ae8:	b90b      	cbnz	r3, aee <udelay+0x12>
}
     aea:	b002      	add	sp, #8
     aec:	4770      	bx	lr
		_gdelay (__USEC_DELAY);
     aee:	2304      	movs	r3, #4
	while (n--);
     af0:	461a      	mov	r2, r3
     af2:	3b01      	subs	r3, #1
     af4:	b29b      	uxth	r3, r3
     af6:	2a00      	cmp	r2, #0
     af8:	d1fa      	bne.n	af0 <udelay+0x14>
		n--;
     afa:	f8bd 3006 	ldrh.w	r3, [sp, #6]
     afe:	3b01      	subs	r3, #1
     b00:	b29b      	uxth	r3, r3
     b02:	f8ad 3006 	strh.w	r3, [sp, #6]
     b06:	e7ec      	b.n	ae2 <udelay+0x6>

00000b08 <mdelay>:
void mdelay (volatile word n) {
     b08:	b507      	push	{r0, r1, r2, lr}
     b0a:	f8ad 0006 	strh.w	r0, [sp, #6]
	while (n) {
     b0e:	f8bd 3006 	ldrh.w	r3, [sp, #6]
     b12:	b29b      	uxth	r3, r3
     b14:	b913      	cbnz	r3, b1c <mdelay+0x14>
}
     b16:	b003      	add	sp, #12
     b18:	f85d fb04 	ldr.w	pc, [sp], #4
		udelay (999);
     b1c:	f240 30e7 	movw	r0, #999	; 0x3e7
     b20:	f7ff ffdc 	bl	adc <udelay>
		n--;
     b24:	f8bd 3006 	ldrh.w	r3, [sp, #6]
     b28:	3b01      	subs	r3, #1
     b2a:	b29b      	uxth	r3, r3
     b2c:	f8ad 3006 	strh.w	r3, [sp, #6]
     b30:	e7ed      	b.n	b0e <mdelay+0x6>
	...

00000b34 <__pi_ondomain>:
void __pi_ondomain (lword d) {
     b34:	b538      	push	{r3, r4, r5, lr}
	if (d & PRCM_DOMAIN_RFCORE) {
     b36:	07c3      	lsls	r3, r0, #31
void __pi_ondomain (lword d) {
     b38:	4604      	mov	r4, r0
	if (d & PRCM_DOMAIN_RFCORE) {
     b3a:	d505      	bpl.n	b48 <__pi_ondomain+0x14>
		if (__pi_systat.effpdm > 1)
     b3c:	4b0a      	ldr	r3, [pc, #40]	; (b68 <__pi_ondomain+0x34>)
     b3e:	78da      	ldrb	r2, [r3, #3]
     b40:	2a01      	cmp	r2, #1
			__pi_systat.effpdm = 1;
     b42:	bf84      	itt	hi
     b44:	2201      	movhi	r2, #1
     b46:	70da      	strbhi	r2, [r3, #3]
	PRCMPowerDomainOn (d);
     b48:	4d08      	ldr	r5, [pc, #32]	; (b6c <__pi_ondomain+0x38>)
     b4a:	4620      	mov	r0, r4
     b4c:	682b      	ldr	r3, [r5, #0]
     b4e:	695b      	ldr	r3, [r3, #20]
     b50:	4798      	blx	r3
	while (PRCMPowerDomainStatus (d) != PRCM_DOMAIN_POWER_ON);
     b52:	682b      	ldr	r3, [r5, #0]
     b54:	4620      	mov	r0, r4
     b56:	6b5b      	ldr	r3, [r3, #52]	; 0x34
     b58:	4798      	blx	r3
     b5a:	2801      	cmp	r0, #1
     b5c:	d1f9      	bne.n	b52 <__pi_ondomain+0x1e>
	__pi_systat.ondmns |= d;
     b5e:	4b02      	ldr	r3, [pc, #8]	; (b68 <__pi_ondomain+0x34>)
     b60:	6858      	ldr	r0, [r3, #4]
     b62:	4304      	orrs	r4, r0
     b64:	605c      	str	r4, [r3, #4]
}
     b66:	bd38      	pop	{r3, r4, r5, pc}
     b68:	200006b4 			; <UNDEFINED> instruction: 0x200006b4
     b6c:	100001b8 			; <UNDEFINED> instruction: 0x100001b8

00000b70 <__pi_offdomain>:
void __pi_offdomain (lword d) {
     b70:	b538      	push	{r3, r4, r5, lr}
	PRCMPowerDomainOff (d);
     b72:	4d0d      	ldr	r5, [pc, #52]	; (ba8 <__pi_offdomain+0x38>)
void __pi_offdomain (lword d) {
     b74:	4604      	mov	r4, r0
	PRCMPowerDomainOff (d);
     b76:	682b      	ldr	r3, [r5, #0]
     b78:	699b      	ldr	r3, [r3, #24]
     b7a:	4798      	blx	r3
	while (PRCMPowerDomainStatus (d) != PRCM_DOMAIN_POWER_OFF);
     b7c:	682b      	ldr	r3, [r5, #0]
     b7e:	4620      	mov	r0, r4
     b80:	6b5b      	ldr	r3, [r3, #52]	; 0x34
     b82:	4798      	blx	r3
     b84:	2802      	cmp	r0, #2
     b86:	d1f9      	bne.n	b7c <__pi_offdomain+0xc>
	if (d & PRCM_DOMAIN_RFCORE) {
     b88:	f014 0f01 	tst.w	r4, #1
     b8c:	4b07      	ldr	r3, [pc, #28]	; (bac <__pi_offdomain+0x3c>)
     b8e:	d006      	beq.n	b9e <__pi_offdomain+0x2e>
		if (__pi_systat.reqpdm > __pi_systat.effpdm)
     b90:	7899      	ldrb	r1, [r3, #2]
     b92:	78da      	ldrb	r2, [r3, #3]
     b94:	4291      	cmp	r1, r2
			__pi_systat.effpdm = __pi_systat.reqpdm;
     b96:	bf82      	ittt	hi
     b98:	789a      	ldrbhi	r2, [r3, #2]
     b9a:	b2d2      	uxtbhi	r2, r2
     b9c:	70da      	strbhi	r2, [r3, #3]
	__pi_systat.ondmns &= ~d;
     b9e:	6858      	ldr	r0, [r3, #4]
     ba0:	ea20 0404 	bic.w	r4, r0, r4
     ba4:	605c      	str	r4, [r3, #4]
}
     ba6:	bd38      	pop	{r3, r4, r5, pc}
     ba8:	100001b8 			; <UNDEFINED> instruction: 0x100001b8
     bac:	200006b4 			; <UNDEFINED> instruction: 0x200006b4

00000bb0 <__pi_syserror>:
void __pi_syserror (word ec, const char *m) {
     bb0:	460a      	mov	r2, r1
     bb2:	b580      	push	{r7, lr}
	diag ("SYSERR: %x, %s", ec, m);
     bb4:	4601      	mov	r1, r0
     bb6:	480f      	ldr	r0, [pc, #60]	; (bf4 <__pi_syserror+0x44>)
     bb8:	f001 f818 	bl	1bec <diag>
  \details Disables IRQ interrupts by setting the I-bit in the CPSR.
           Can only be executed in Privileged modes.
 */
__attribute__((always_inline)) __STATIC_INLINE void __disable_irq(void)
{
  __ASM volatile ("cpsid i" : : : "memory");
     bbc:	b672      	cpsid	i
    ASSERT( dioNumberLegal( dioNumber ));

    //
    // Set the specified DIO.
    //
    HWREG( GPIO_BASE + GPIO_O_DOUTSET31_0 ) = ( 1 << dioNumber );
     bbe:	2540      	movs	r5, #64	; 0x40
     bc0:	462f      	mov	r7, r5
     bc2:	4e0d      	ldr	r6, [pc, #52]	; (bf8 <__pi_syserror+0x48>)
     bc4:	2480      	movs	r4, #128	; 0x80
		all_leds_blink;
     bc6:	490d      	ldr	r1, [pc, #52]	; (bfc <__pi_syserror+0x4c>)
     bc8:	6037      	str	r7, [r6, #0]
     bca:	6034      	str	r4, [r6, #0]
     bcc:	780b      	ldrb	r3, [r1, #0]
     bce:	780b      	ldrb	r3, [r1, #0]
     bd0:	20c8      	movs	r0, #200	; 0xc8
     bd2:	f36f 1307 	bfc	r3, #4, #4
     bd6:	700b      	strb	r3, [r1, #0]
     bd8:	f7ff ff96 	bl	b08 <mdelay>
    ASSERT( dioNumberLegal( dioNumber ));

    //
    // Clear the specified DIO.
    //
    HWREG( GPIO_BASE + GPIO_O_DOUTCLR31_0 ) = ( 1 << dioNumber );
     bdc:	4b08      	ldr	r3, [pc, #32]	; (c00 <__pi_syserror+0x50>)
     bde:	20c8      	movs	r0, #200	; 0xc8
     be0:	601d      	str	r5, [r3, #0]
     be2:	601c      	str	r4, [r3, #0]
     be4:	780b      	ldrb	r3, [r1, #0]
     be6:	780b      	ldrb	r3, [r1, #0]
     be8:	f36f 1307 	bfc	r3, #4, #4
     bec:	700b      	strb	r3, [r1, #0]
     bee:	f7ff ff8b 	bl	b08 <mdelay>
	while (1) {
     bf2:	e7e7      	b.n	bc4 <__pi_syserror+0x14>
     bf4:	00004e7e 	andeq	r4, r0, lr, ror lr
     bf8:	40022090 	mulmi	r2, r0, r0
     bfc:	200006b4 			; <UNDEFINED> instruction: 0x200006b4
     c00:	400220a0 	andmi	r2, r2, r0, lsr #1

00000c04 <tci_run_delay_timer>:
void tci_run_delay_timer () {
     c04:	b510      	push	{r4, lr}
	setdel = __pi_mintk - __pi_old;
     c06:	4b0a      	ldr	r3, [pc, #40]	; (c30 <tci_run_delay_timer+0x2c>)
     c08:	881c      	ldrh	r4, [r3, #0]
     c0a:	4b0a      	ldr	r3, [pc, #40]	; (c34 <tci_run_delay_timer+0x30>)
     c0c:	8818      	ldrh	r0, [r3, #0]
     c0e:	4b0a      	ldr	r3, [pc, #40]	; (c38 <tci_run_delay_timer+0x34>)
     c10:	1b00      	subs	r0, r0, r4
     c12:	b284      	uxth	r4, r0
     c14:	801c      	strh	r4, [r3, #0]
	return (lword)(AONRTCCurrent64BitValueGet () >> 16) + TCI_TINCR (del);
     c16:	f002 fe4b 	bl	38b0 <NOROM_AONRTCCurrent64BitValueGet>
	sti_tim;
     c1a:	2201      	movs	r2, #1
	return (lword)(AONRTCCurrent64BitValueGet () >> 16) + TCI_TINCR (del);
     c1c:	0c00      	lsrs	r0, r0, #16
	HWREG (AON_RTC_BASE + AON_RTC_O_CH0CMP) = settav (setdel);
     c1e:	4b07      	ldr	r3, [pc, #28]	; (c3c <tci_run_delay_timer+0x38>)
	return (lword)(AONRTCCurrent64BitValueGet () >> 16) + TCI_TINCR (del);
     c20:	ea40 4001 	orr.w	r0, r0, r1, lsl #16
     c24:	eb00 1084 	add.w	r0, r0, r4, lsl #6
	HWREG (AON_RTC_BASE + AON_RTC_O_CH0CMP) = settav (setdel);
     c28:	6018      	str	r0, [r3, #0]
	sti_tim;
     c2a:	4b05      	ldr	r3, [pc, #20]	; (c40 <tci_run_delay_timer+0x3c>)
     c2c:	601a      	str	r2, [r3, #0]
}
     c2e:	bd10      	pop	{r4, pc}
     c30:	200006b2 			; <UNDEFINED> instruction: 0x200006b2
     c34:	200006b0 			; <UNDEFINED> instruction: 0x200006b0
     c38:	2000057e 	andcs	r0, r0, lr, ror r5
     c3c:	40092018 	andmi	r2, r9, r8, lsl r0
     c40:	43240280 			; <UNDEFINED> instruction: 0x43240280

00000c44 <tci_run_auxiliary_timer>:
	cli_aux;
     c44:	2300      	movs	r3, #0
void tci_run_auxiliary_timer () {
     c46:	b510      	push	{r4, lr}
	cli_aux;
     c48:	4c06      	ldr	r4, [pc, #24]	; (c64 <tci_run_auxiliary_timer+0x20>)
     c4a:	6023      	str	r3, [r4, #0]
	return (lword)(AONRTCCurrent64BitValueGet () >> 16) + TCI_TINCR (del);
     c4c:	f002 fe30 	bl	38b0 <NOROM_AONRTCCurrent64BitValueGet>
     c50:	0c00      	lsrs	r0, r0, #16
	HWREG (AON_RTC_BASE + AON_RTC_O_CH2CMP) = settav (1);
     c52:	4b05      	ldr	r3, [pc, #20]	; (c68 <tci_run_auxiliary_timer+0x24>)
	return (lword)(AONRTCCurrent64BitValueGet () >> 16) + TCI_TINCR (del);
     c54:	ea40 4001 	orr.w	r0, r0, r1, lsl #16
     c58:	3040      	adds	r0, #64	; 0x40
	HWREG (AON_RTC_BASE + AON_RTC_O_CH2CMP) = settav (1);
     c5a:	6018      	str	r0, [r3, #0]
	sti_aux;
     c5c:	2301      	movs	r3, #1
     c5e:	6023      	str	r3, [r4, #0]
}
     c60:	bd10      	pop	{r4, pc}
     c62:	bf00      	nop
     c64:	432402c0 			; <UNDEFINED> instruction: 0x432402c0
     c68:	40092020 	andmi	r2, r9, r0, lsr #32

00000c6c <AONRTCIntHandler>:
void AONRTCIntHandler () {
     c6c:	b510      	push	{r4, lr}
	events = HWREG (AON_RTC_BASE + AON_RTC_O_EVFLAGS) & 
     c6e:	4b3b      	ldr	r3, [pc, #236]	; (d5c <AONRTCIntHandler+0xf0>)
     c70:	6818      	ldr	r0, [r3, #0]
     c72:	f000 1201 	and.w	r2, r0, #65537	; 0x10001
	if (events & AON_RTC_EVFLAGS_CH2) {
     c76:	03c4      	lsls	r4, r0, #15
	HWREG (AON_RTC_BASE + AON_RTC_O_EVFLAGS) = events;
     c78:	601a      	str	r2, [r3, #0]
	if (events & AON_RTC_EVFLAGS_CH2) {
     c7a:	d542      	bpl.n	d02 <AONRTCIntHandler+0x96>
		if (__pi_utims [0] == 0)
     c7c:	4b38      	ldr	r3, [pc, #224]	; (d60 <AONRTCIntHandler+0xf4>)
     c7e:	6819      	ldr	r1, [r3, #0]
     c80:	2900      	cmp	r1, #0
     c82:	d053      	beq.n	d2c <AONRTCIntHandler+0xc0>
		if (*(__pi_utims [0])) {
     c84:	880a      	ldrh	r2, [r1, #0]
     c86:	2a00      	cmp	r2, #0
     c88:	d04e      	beq.n	d28 <AONRTCIntHandler+0xbc>
			(*(__pi_utims [0]))--;
     c8a:	3a01      	subs	r2, #1
     c8c:	800a      	strh	r2, [r1, #0]
			aux_timer_inactive = 0;
     c8e:	2200      	movs	r2, #0
		if (__pi_utims [1] == 0)
     c90:	685c      	ldr	r4, [r3, #4]
     c92:	b194      	cbz	r4, cba <AONRTCIntHandler+0x4e>
		if (*(__pi_utims [1])) {
     c94:	8821      	ldrh	r1, [r4, #0]
     c96:	b111      	cbz	r1, c9e <AONRTCIntHandler+0x32>
			aux_timer_inactive = 0;
     c98:	2200      	movs	r2, #0
			(*(__pi_utims [1]))--;
     c9a:	3901      	subs	r1, #1
     c9c:	8021      	strh	r1, [r4, #0]
		if (__pi_utims [2] == 0)
     c9e:	689c      	ldr	r4, [r3, #8]
     ca0:	b15c      	cbz	r4, cba <AONRTCIntHandler+0x4e>
		if (*(__pi_utims [2])) {
     ca2:	8821      	ldrh	r1, [r4, #0]
     ca4:	b111      	cbz	r1, cac <AONRTCIntHandler+0x40>
			aux_timer_inactive = 0;
     ca6:	2200      	movs	r2, #0
			(*(__pi_utims [2]))--;
     ca8:	3901      	subs	r1, #1
     caa:	8021      	strh	r1, [r4, #0]
		if (__pi_utims [3] != 0) {
     cac:	68d9      	ldr	r1, [r3, #12]
     cae:	b121      	cbz	r1, cba <AONRTCIntHandler+0x4e>
			if (*(__pi_utims [3])) {
     cb0:	880b      	ldrh	r3, [r1, #0]
     cb2:	b113      	cbz	r3, cba <AONRTCIntHandler+0x4e>
				aux_timer_inactive = 0;
     cb4:	2200      	movs	r2, #0
				(*(__pi_utims [3]))--;
     cb6:	3b01      	subs	r3, #1
     cb8:	800b      	strh	r3, [r1, #0]
/* ==================================================================== */
/* Copyright (C) Olsonet Communications, 2002 - 2006                    */
/* All rights reserved.                                                 */
/* ==================================================================== */

	if (__pi_systat.ledsts) {
     cba:	4b2a      	ldr	r3, [pc, #168]	; (d64 <AONRTCIntHandler+0xf8>)
     cbc:	7819      	ldrb	r1, [r3, #0]
     cbe:	0909      	lsrs	r1, r1, #4
     cc0:	d047      	beq.n	d52 <AONRTCIntHandler+0xe6>
		// Some leds are supposed to blink
		if (__pi_systat.ledblc++ == 0) {
     cc2:	7859      	ldrb	r1, [r3, #1]
     cc4:	1c4a      	adds	r2, r1, #1
     cc6:	b2d2      	uxtb	r2, r2
     cc8:	705a      	strb	r2, [r3, #1]
     cca:	b9d1      	cbnz	r1, d02 <AONRTCIntHandler+0x96>
			if (__pi_systat.ledblk) {
     ccc:	781a      	ldrb	r2, [r3, #0]
     cce:	f012 0f08 	tst.w	r2, #8
				if (__pi_systat.ledsts & 0x1)
     cd2:	781a      	ldrb	r2, [r3, #0]
			if (__pi_systat.ledblk) {
     cd4:	d02c      	beq.n	d30 <AONRTCIntHandler+0xc4>
				if (__pi_systat.ledsts & 0x1)
     cd6:	06d1      	lsls	r1, r2, #27
    HWREG( GPIO_BASE + GPIO_O_DOUTSET31_0 ) = ( 1 << dioNumber );
     cd8:	bf42      	ittt	mi
     cda:	2140      	movmi	r1, #64	; 0x40
     cdc:	4a22      	ldrmi	r2, [pc, #136]	; (d68 <AONRTCIntHandler+0xfc>)
     cde:	6011      	strmi	r1, [r2, #0]
					LED0_ON;
				if (__pi_systat.ledsts & 0x2)
     ce0:	781a      	ldrb	r2, [r3, #0]
     ce2:	0692      	lsls	r2, r2, #26
     ce4:	bf42      	ittt	mi
     ce6:	2180      	movmi	r1, #128	; 0x80
     ce8:	4a1f      	ldrmi	r2, [pc, #124]	; (d68 <AONRTCIntHandler+0xfc>)
     cea:	6011      	strmi	r1, [r2, #0]
					LED1_ON;
				if (__pi_systat.ledsts & 0x4)
     cec:	781a      	ldrb	r2, [r3, #0]
					LED2_ON;
				if (__pi_systat.ledsts & 0x8)
     cee:	781a      	ldrb	r2, [r3, #0]
					LED3_ON;
				__pi_systat.ledblk = 0;
     cf0:	781a      	ldrb	r2, [r3, #0]
     cf2:	f36f 02c3 	bfc	r2, #3, #1
					LED1_OFF;
				if (__pi_systat.ledsts & 0x4)
					LED2_OFF;
				if (__pi_systat.ledsts & 0x8)
					LED3_OFF;
				__pi_systat.ledblk = 1;
     cf6:	701a      	strb	r2, [r3, #0]
			}
			if (__pi_systat.fstblk)
     cf8:	781a      	ldrb	r2, [r3, #0]
     cfa:	0752      	lsls	r2, r2, #29
     cfc:	d501      	bpl.n	d02 <AONRTCIntHandler+0x96>
				__pi_systat.ledblc = 200;
     cfe:	22c8      	movs	r2, #200	; 0xc8
     d00:	705a      	strb	r2, [r3, #1]
	if (events & AON_RTC_EVFLAGS_CH0) {
     d02:	07c3      	lsls	r3, r0, #31
     d04:	d50f      	bpl.n	d26 <AONRTCIntHandler+0xba>
		cli_tim;
     d06:	2100      	movs	r1, #0
     d08:	4b18      	ldr	r3, [pc, #96]	; (d6c <AONRTCIntHandler+0x100>)
		__pi_new += setdel;
     d0a:	4a19      	ldr	r2, [pc, #100]	; (d70 <AONRTCIntHandler+0x104>)
     d0c:	4819      	ldr	r0, [pc, #100]	; (d74 <AONRTCIntHandler+0x108>)
		cli_tim;
     d0e:	6019      	str	r1, [r3, #0]
		__pi_new += setdel;
     d10:	8803      	ldrh	r3, [r0, #0]
     d12:	8814      	ldrh	r4, [r2, #0]
		setdel = 0;
     d14:	8011      	strh	r1, [r2, #0]
		__pi_new += setdel;
     d16:	4423      	add	r3, r4
		RISE_N_SHINE;
     d18:	4a12      	ldr	r2, [pc, #72]	; (d64 <AONRTCIntHandler+0xf8>)
		__pi_new += setdel;
     d1a:	b29b      	uxth	r3, r3
     d1c:	8003      	strh	r3, [r0, #0]
		RISE_N_SHINE;
     d1e:	7813      	ldrb	r3, [r2, #0]
     d20:	f043 0302 	orr.w	r3, r3, #2
     d24:	7013      	strb	r3, [r2, #0]
}
     d26:	bd10      	pop	{r4, pc}
		aux_timer_inactive = 1;
     d28:	2201      	movs	r2, #1
     d2a:	e7b1      	b.n	c90 <AONRTCIntHandler+0x24>
     d2c:	2201      	movs	r2, #1
     d2e:	e7c4      	b.n	cba <AONRTCIntHandler+0x4e>
				if (__pi_systat.ledsts & 0x1)
     d30:	06d4      	lsls	r4, r2, #27
    HWREG( GPIO_BASE + GPIO_O_DOUTCLR31_0 ) = ( 1 << dioNumber );
     d32:	bf42      	ittt	mi
     d34:	2140      	movmi	r1, #64	; 0x40
     d36:	4a10      	ldrmi	r2, [pc, #64]	; (d78 <AONRTCIntHandler+0x10c>)
     d38:	6011      	strmi	r1, [r2, #0]
				if (__pi_systat.ledsts & 0x2)
     d3a:	781a      	ldrb	r2, [r3, #0]
     d3c:	0691      	lsls	r1, r2, #26
     d3e:	bf42      	ittt	mi
     d40:	2180      	movmi	r1, #128	; 0x80
     d42:	4a0d      	ldrmi	r2, [pc, #52]	; (d78 <AONRTCIntHandler+0x10c>)
     d44:	6011      	strmi	r1, [r2, #0]
				if (__pi_systat.ledsts & 0x4)
     d46:	781a      	ldrb	r2, [r3, #0]
				if (__pi_systat.ledsts & 0x8)
     d48:	781a      	ldrb	r2, [r3, #0]
				__pi_systat.ledblk = 1;
     d4a:	781a      	ldrb	r2, [r3, #0]
     d4c:	f042 0208 	orr.w	r2, r2, #8
     d50:	e7d1      	b.n	cf6 <AONRTCIntHandler+0x8a>
		if (aux_timer_inactive) {
     d52:	2a00      	cmp	r2, #0
     d54:	d0d5      	beq.n	d02 <AONRTCIntHandler+0x96>
			cli_aux;
     d56:	4b09      	ldr	r3, [pc, #36]	; (d7c <AONRTCIntHandler+0x110>)
     d58:	6019      	str	r1, [r3, #0]
     d5a:	e7d2      	b.n	d02 <AONRTCIntHandler+0x96>
     d5c:	40092004 	andmi	r2, r9, r4
     d60:	200006c0 	andcs	r0, r0, r0, asr #13
     d64:	200006b4 			; <UNDEFINED> instruction: 0x200006b4
     d68:	40022090 	mulmi	r2, r0, r0
     d6c:	43240280 			; <UNDEFINED> instruction: 0x43240280
     d70:	2000057e 	andcs	r0, r0, lr, ror r5
     d74:	200006bc 			; <UNDEFINED> instruction: 0x200006bc
     d78:	400220a0 	andmi	r2, r2, r0, lsr #1
     d7c:	432402c0 			; <UNDEFINED> instruction: 0x432402c0

00000d80 <tci_update_delay_ticks>:
word tci_update_delay_ticks (Boolean force) {
     d80:	b5f8      	push	{r3, r4, r5, r6, r7, lr}
	cli_tim;
     d82:	2600      	movs	r6, #0
     d84:	4b0e      	ldr	r3, [pc, #56]	; (dc0 <tci_update_delay_ticks+0x40>)
	if (setdel) {
     d86:	4f0f      	ldr	r7, [pc, #60]	; (dc4 <tci_update_delay_ticks+0x44>)
	cli_tim;
     d88:	601e      	str	r6, [r3, #0]
	if (setdel) {
     d8a:	883d      	ldrh	r5, [r7, #0]
     d8c:	b19d      	cbz	r5, db6 <tci_update_delay_ticks+0x36>
		if (force) {
     d8e:	b1a0      	cbz	r0, dba <tci_update_delay_ticks+0x3a>
			__pi_new += setdel - (TCI_INCRT (HWREG (AON_RTC_BASE +
     d90:	4b0d      	ldr	r3, [pc, #52]	; (dc8 <tci_update_delay_ticks+0x48>)
     d92:	681c      	ldr	r4, [r3, #0]
	return (word)(AONRTCCurrent64BitValueGet () >> (32 - 10));
     d94:	f002 fd8c 	bl	38b0 <NOROM_AONRTCCurrent64BitValueGet>
     d98:	0d80      	lsrs	r0, r0, #22
     d9a:	ea40 2081 	orr.w	r0, r0, r1, lsl #10
			__pi_new += setdel - (TCI_INCRT (HWREG (AON_RTC_BASE +
     d9e:	f3c4 148f 	ubfx	r4, r4, #6, #16
				AON_RTC_O_CH0CMP)) - gettav ());
     da2:	b280      	uxth	r0, r0
     da4:	1a24      	subs	r4, r4, r0
			__pi_new += setdel - (TCI_INCRT (HWREG (AON_RTC_BASE +
     da6:	1b2c      	subs	r4, r5, r4
	return NO;
     da8:	4635      	mov	r5, r6
			__pi_new += setdel - (TCI_INCRT (HWREG (AON_RTC_BASE +
     daa:	4b08      	ldr	r3, [pc, #32]	; (dcc <tci_update_delay_ticks+0x4c>)
			setdel = 0;
     dac:	803e      	strh	r6, [r7, #0]
			__pi_new += setdel - (TCI_INCRT (HWREG (AON_RTC_BASE +
     dae:	881a      	ldrh	r2, [r3, #0]
     db0:	4414      	add	r4, r2
     db2:	b2a4      	uxth	r4, r4
     db4:	801c      	strh	r4, [r3, #0]
}
     db6:	4628      	mov	r0, r5
     db8:	bdf8      	pop	{r3, r4, r5, r6, r7, pc}
		sti_tim;
     dba:	2501      	movs	r5, #1
     dbc:	601d      	str	r5, [r3, #0]
		return YES;
     dbe:	e7fa      	b.n	db6 <tci_update_delay_ticks+0x36>
     dc0:	43240280 			; <UNDEFINED> instruction: 0x43240280
     dc4:	2000057e 	andcs	r0, r0, lr, ror r5
     dc8:	40092018 	andmi	r2, r9, r8, lsl r0
     dcc:	200006bc 			; <UNDEFINED> instruction: 0x200006bc

00000dd0 <__pi_uart_setrate>:
Boolean __pi_uart_setrate (word rate, uart_t *ua) {
     dd0:	b570      	push	{r4, r5, r6, lr}
	UARTDisable (UART0_BASE);
     dd2:	4e0f      	ldr	r6, [pc, #60]	; (e10 <__pi_uart_setrate+0x40>)
     dd4:	4d0f      	ldr	r5, [pc, #60]	; (e14 <__pi_uart_setrate+0x44>)
     dd6:	6833      	ldr	r3, [r6, #0]
Boolean __pi_uart_setrate (word rate, uart_t *ua) {
     dd8:	4604      	mov	r4, r0
	UARTDisable (UART0_BASE);
     dda:	68db      	ldr	r3, [r3, #12]
     ddc:	4628      	mov	r0, r5
     dde:	4798      	blx	r3
	UARTConfigSetExpClk (UART0_BASE,
     de0:	2264      	movs	r2, #100	; 0x64
     de2:	6833      	ldr	r3, [r6, #0]
     de4:	4628      	mov	r0, r5
     de6:	4362      	muls	r2, r4
     de8:	685e      	ldr	r6, [r3, #4]
     dea:	490b      	ldr	r1, [pc, #44]	; (e18 <__pi_uart_setrate+0x48>)
     dec:	2360      	movs	r3, #96	; 0x60
     dee:	47b0      	blx	r6
    ASSERT(UARTBaseValid(ui32Base));

    //
    // Enable the FIFO.
    //
    HWREG(ui32Base + UART_O_LCRH) |= UART_LCRH_FEN;
     df0:	4a0a      	ldr	r2, [pc, #40]	; (e1c <__pi_uart_setrate+0x4c>)
}
     df2:	2001      	movs	r0, #1
     df4:	6813      	ldr	r3, [r2, #0]
     df6:	f043 0310 	orr.w	r3, r3, #16
     dfa:	6013      	str	r3, [r2, #0]

    //
    // Enable RX, TX, and the UART.
    //
    HWREG(ui32Base + UART_O_CTL) |= (UART_CTL_UARTEN | UART_CTL_TXE |
     dfc:	6853      	ldr	r3, [r2, #4]
     dfe:	f443 7340 	orr.w	r3, r3, #768	; 0x300
     e02:	f043 0301 	orr.w	r3, r3, #1
     e06:	6053      	str	r3, [r2, #4]
	urates [0] = rate;
     e08:	4b05      	ldr	r3, [pc, #20]	; (e20 <__pi_uart_setrate+0x50>)
     e0a:	801c      	strh	r4, [r3, #0]
}
     e0c:	bd70      	pop	{r4, r5, r6, pc}
     e0e:	bf00      	nop
     e10:	100001d0 	ldrdne	r0, [r0], -r0	; <UNPREDICTABLE>
     e14:	40001000 	andmi	r1, r0, r0
     e18:	02dc6c00 	sbcseq	r6, ip, #0, 24
     e1c:	4000102c 	andmi	r1, r0, ip, lsr #32
     e20:	20000580 	andcs	r0, r0, r0, lsl #11

00000e24 <reinit_uart>:
    ASSERT(UARTBaseValid(ui32Base));

    //
    // Enable the FIFO.
    //
    HWREG(ui32Base + UART_O_LCRH) |= UART_LCRH_FEN;
     e24:	4a08      	ldr	r2, [pc, #32]	; (e48 <reinit_uart+0x24>)
	__pi_uart_setrate (urates [0], __pi_uart);
     e26:	4909      	ldr	r1, [pc, #36]	; (e4c <reinit_uart+0x28>)
     e28:	6813      	ldr	r3, [r2, #0]
     e2a:	f043 0310 	orr.w	r3, r3, #16
     e2e:	6013      	str	r3, [r2, #0]
    HWREG(ui32Base + UART_O_IFLS) = ui32TxLevel | ui32RxLevel;
     e30:	2212      	movs	r2, #18
     e32:	4b07      	ldr	r3, [pc, #28]	; (e50 <reinit_uart+0x2c>)
     e34:	601a      	str	r2, [r3, #0]
    //
    // Check the arguments.
    //
    ASSERT( UARTBaseValid( ui32Base ));

    HWREG( ui32Base + UART_O_CTL ) &= ~( UART_CTL_CTSEN | UART_CTL_RTSEN );
     e36:	4a07      	ldr	r2, [pc, #28]	; (e54 <reinit_uart+0x30>)
     e38:	6813      	ldr	r3, [r2, #0]
     e3a:	f423 4340 	bic.w	r3, r3, #49152	; 0xc000
     e3e:	6013      	str	r3, [r2, #0]
     e40:	4b05      	ldr	r3, [pc, #20]	; (e58 <reinit_uart+0x34>)
     e42:	8818      	ldrh	r0, [r3, #0]
     e44:	f7ff bfc4 	b.w	dd0 <__pi_uart_setrate>
     e48:	4000102c 	andmi	r1, r0, ip, lsr #32
     e4c:	200006a0 	andcs	r0, r0, r0, lsr #13
     e50:	40001034 	andmi	r1, r0, r4, lsr r0
     e54:	40001030 	andmi	r1, r0, r0, lsr r0
     e58:	20000580 	andcs	r0, r0, r0, lsl #11

00000e5c <ioreq_uart_a>:
	switch (operation) {
     e5c:	3001      	adds	r0, #1
static int ioreq_uart_a (int operation, char *buf, int len) {
     e5e:	e92d 43f8 	stmdb	sp!, {r3, r4, r5, r6, r7, r8, r9, lr}
     e62:	460d      	mov	r5, r1
     e64:	4614      	mov	r4, r2
     e66:	2803      	cmp	r0, #3
     e68:	d86e      	bhi.n	f48 <ioreq_uart_a+0xec>
     e6a:	e8df f000 	tbb	[pc, r0]
     e6e:	5a471253 	bpl	11c57c2 <__ccfg+0x11a581a>
				*buf++ = uart_a_read;
     e72:	f8d9 3000 	ldr.w	r3, [r9]
				len--;
     e76:	3e01      	subs	r6, #1
				*buf++ = uart_a_read;
     e78:	f805 3b01 	strb.w	r3, [r5], #1
			while (len && uart_a_char_available) {
     e7c:	b11e      	cbz	r6, e86 <ioreq_uart_a+0x2a>
     e7e:	f8d8 3000 	ldr.w	r3, [r8]
     e82:	06d8      	lsls	r0, r3, #27
     e84:	d5f5      	bpl.n	e72 <ioreq_uart_a+0x16>
			if (len != operation) {
     e86:	42a6      	cmp	r6, r4
     e88:	d00a      	beq.n	ea0 <ioreq_uart_a+0x44>
				return operation - len;
     e8a:	1ba4      	subs	r4, r4, r6
}
     e8c:	4620      	mov	r0, r4
     e8e:	e8bd 83f8 	ldmia.w	sp!, {r3, r4, r5, r6, r7, r8, r9, pc}
				*buf++ = uart_a_read;
     e92:	4616      	mov	r6, r2
			uart_a_disable_int;
     e94:	4f2e      	ldr	r7, [pc, #184]	; (f50 <ioreq_uart_a+0xf4>)
			if (uart_a_char_available) {
     e96:	f8df 80cc 	ldr.w	r8, [pc, #204]	; f64 <ioreq_uart_a+0x108>
				*buf++ = uart_a_read;
     e9a:	f8df 90cc 	ldr.w	r9, [pc, #204]	; f68 <ioreq_uart_a+0x10c>
     e9e:	e7ed      	b.n	e7c <ioreq_uart_a+0x20>
			uart_a_disable_int;
     ea0:	683b      	ldr	r3, [r7, #0]
     ea2:	2015      	movs	r0, #21
     ea4:	695b      	ldr	r3, [r3, #20]
     ea6:	4798      	blx	r3
			if (uart_a_char_available) {
     ea8:	f8d8 3000 	ldr.w	r3, [r8]
     eac:	06d9      	lsls	r1, r3, #27
     eae:	d404      	bmi.n	eba <ioreq_uart_a+0x5e>
				uart_a_enable_int;
     eb0:	683b      	ldr	r3, [r7, #0]
     eb2:	2015      	movs	r0, #21
     eb4:	691b      	ldr	r3, [r3, #16]
     eb6:	4798      	blx	r3
				goto Redo_rx;
     eb8:	e7e0      	b.n	e7c <ioreq_uart_a+0x20>
			_BIS (__pi_uart->flags, UART_FLAGS_IN);
     eba:	4a26      	ldr	r2, [pc, #152]	; (f54 <ioreq_uart_a+0xf8>)
     ebc:	7993      	ldrb	r3, [r2, #6]
     ebe:	f043 0380 	orr.w	r3, r3, #128	; 0x80
			return -2;
     ec2:	f06f 0401 	mvn.w	r4, #1
			_BIS (__pi_uart->flags, UART_FLAGS_OUT);
     ec6:	7193      	strb	r3, [r2, #6]
			return -2;
     ec8:	e7e0      	b.n	e8c <ioreq_uart_a+0x30>
				uart_a_write (*buf);
     eca:	f815 3b01 	ldrb.w	r3, [r5], #1
				len--;
     ece:	3e01      	subs	r6, #1
				uart_a_write (*buf);
     ed0:	f8c9 3000 	str.w	r3, [r9]
			while (len && uart_a_room_in_tx) {
     ed4:	b11e      	cbz	r6, ede <ioreq_uart_a+0x82>
     ed6:	f8d8 3000 	ldr.w	r3, [r8]
     eda:	069a      	lsls	r2, r3, #26
     edc:	d5f5      	bpl.n	eca <ioreq_uart_a+0x6e>
			if (len != operation) {
     ede:	42a6      	cmp	r6, r4
     ee0:	d1d3      	bne.n	e8a <ioreq_uart_a+0x2e>
			uart_a_disable_int;
     ee2:	683b      	ldr	r3, [r7, #0]
     ee4:	2015      	movs	r0, #21
     ee6:	695b      	ldr	r3, [r3, #20]
     ee8:	4798      	blx	r3
			if (uart_a_room_in_tx) {
     eea:	f8d8 3000 	ldr.w	r3, [r8]
     eee:	069b      	lsls	r3, r3, #26
     ef0:	d40b      	bmi.n	f0a <ioreq_uart_a+0xae>
				uart_a_enable_int;
     ef2:	683b      	ldr	r3, [r7, #0]
     ef4:	2015      	movs	r0, #21
     ef6:	691b      	ldr	r3, [r3, #16]
     ef8:	4798      	blx	r3
				goto Redo_tx;
     efa:	e7eb      	b.n	ed4 <ioreq_uart_a+0x78>
				*buf++ = uart_a_read;
     efc:	4616      	mov	r6, r2
			uart_a_disable_int;
     efe:	4f14      	ldr	r7, [pc, #80]	; (f50 <ioreq_uart_a+0xf4>)
			if (uart_a_room_in_tx) {
     f00:	f8df 8060 	ldr.w	r8, [pc, #96]	; f64 <ioreq_uart_a+0x108>
				uart_a_write (*buf);
     f04:	f8df 9060 	ldr.w	r9, [pc, #96]	; f68 <ioreq_uart_a+0x10c>
     f08:	e7e4      	b.n	ed4 <ioreq_uart_a+0x78>
			_BIS (__pi_uart->flags, UART_FLAGS_OUT);
     f0a:	4a12      	ldr	r2, [pc, #72]	; (f54 <ioreq_uart_a+0xf8>)
     f0c:	7993      	ldrb	r3, [r2, #6]
     f0e:	f043 0340 	orr.w	r3, r3, #64	; 0x40
     f12:	e7d6      	b.n	ec2 <ioreq_uart_a+0x66>
			uart_a_enable_int;
     f14:	4b0e      	ldr	r3, [pc, #56]	; (f50 <ioreq_uart_a+0xf4>)
     f16:	2015      	movs	r0, #21
     f18:	681b      	ldr	r3, [r3, #0]
			return 0;
     f1a:	2400      	movs	r4, #0
			uart_a_enable_int;
     f1c:	691b      	ldr	r3, [r3, #16]
     f1e:	4798      	blx	r3
			return 0;
     f20:	e7b4      	b.n	e8c <ioreq_uart_a+0x30>
			if (len == UART_CNTRL_SETRATE) {
     f22:	2a01      	cmp	r2, #1
     f24:	d109      	bne.n	f3a <ioreq_uart_a+0xde>
				if (__pi_uart_setrate (*((word*)buf),
     f26:	490b      	ldr	r1, [pc, #44]	; (f54 <ioreq_uart_a+0xf8>)
     f28:	8828      	ldrh	r0, [r5, #0]
     f2a:	f7ff ff51 	bl	dd0 <__pi_uart_setrate>
     f2e:	2800      	cmp	r0, #0
     f30:	d1ac      	bne.n	e8c <ioreq_uart_a+0x30>
				syserror (EREQPAR, "uar");
     f32:	2003      	movs	r0, #3
     f34:	4908      	ldr	r1, [pc, #32]	; (f58 <ioreq_uart_a+0xfc>)
			syserror (ENOOPER, "uai");
     f36:	f7ff fe3b 	bl	bb0 <__pi_syserror>
			if (len == UART_CNTRL_GETRATE) {
     f3a:	2a02      	cmp	r2, #2
     f3c:	d104      	bne.n	f48 <ioreq_uart_a+0xec>
	return urates [0];
     f3e:	4b07      	ldr	r3, [pc, #28]	; (f5c <ioreq_uart_a+0x100>)
				return 1;
     f40:	2401      	movs	r4, #1
				*((word*)buf) = __pi_uart_getrate (__pi_uart);
     f42:	881b      	ldrh	r3, [r3, #0]
     f44:	800b      	strh	r3, [r1, #0]
				return 1;
     f46:	e7a1      	b.n	e8c <ioreq_uart_a+0x30>
			syserror (ENOOPER, "uai");
     f48:	2002      	movs	r0, #2
     f4a:	4905      	ldr	r1, [pc, #20]	; (f60 <ioreq_uart_a+0x104>)
     f4c:	e7f3      	b.n	f36 <ioreq_uart_a+0xda>
     f4e:	bf00      	nop
     f50:	100001b0 			; <UNDEFINED> instruction: 0x100001b0
     f54:	200006a0 	andcs	r0, r0, r0, lsr #13
     f58:	00004e8d 	andeq	r4, r0, sp, lsl #29
     f5c:	20000580 	andcs	r0, r0, r0, lsl #11
     f60:	00004e91 	muleq	r0, r1, lr
     f64:	40001018 	andmi	r1, r0, r8, lsl r0
     f68:	40001000 	andmi	r1, r0, r0

00000f6c <UART0IntHandler>:
    HWREG(ui32Base + UART_O_ICR) = ui32IntFlags;
     f6c:	f240 72f2 	movw	r2, #2034	; 0x7f2
}

void UART0IntHandler () {
     f70:	b530      	push	{r4, r5, lr}
     f72:	4b29      	ldr	r3, [pc, #164]	; (1018 <UART0IntHandler+0xac>)

	uart_a_clear_interrupts;

	if (uart_a_char_available && (__pi_uart->flags & UART_FLAGS_IN)) {
     f74:	4c29      	ldr	r4, [pc, #164]	; (101c <UART0IntHandler+0xb0>)
     f76:	601a      	str	r2, [r3, #0]
     f78:	6822      	ldr	r2, [r4, #0]
     f7a:	06d5      	lsls	r5, r2, #27
     f7c:	d423      	bmi.n	fc6 <UART0IntHandler+0x5a>
     f7e:	4b28      	ldr	r3, [pc, #160]	; (1020 <UART0IntHandler+0xb4>)
     f80:	799a      	ldrb	r2, [r3, #6]
     f82:	0610      	lsls	r0, r2, #24
     f84:	d51f      	bpl.n	fc6 <UART0IntHandler+0x5a>
		_BIC (__pi_uart->flags, UART_FLAGS_IN);
     f86:	799a      	ldrb	r2, [r3, #6]
     f88:	f002 027f 	and.w	r2, r2, #127	; 0x7f
     f8c:	719a      	strb	r2, [r3, #6]
		RISE_N_SHINE;
     f8e:	4a25      	ldr	r2, [pc, #148]	; (1024 <UART0IntHandler+0xb8>)
     f90:	7813      	ldrb	r3, [r2, #0]
     f92:	f043 0302 	orr.w	r3, r3, #2
     f96:	7013      	strb	r3, [r2, #0]
		i_trigger (devevent (UART_A, READ));
     f98:	4b23      	ldr	r3, [pc, #140]	; (1028 <UART0IntHandler+0xbc>)
     f9a:	681a      	ldr	r2, [r3, #0]
     f9c:	b19a      	cbz	r2, fc6 <UART0IntHandler+0x5a>
     f9e:	4610      	mov	r0, r2
     fa0:	2300      	movs	r3, #0
     fa2:	f830 1b10 	ldrh.w	r1, [r0], #16
     fa6:	f001 0107 	and.w	r1, r1, #7
     faa:	4299      	cmp	r1, r3
     fac:	dd09      	ble.n	fc2 <UART0IntHandler+0x56>
     fae:	f850 5033 	ldr.w	r5, [r0, r3, lsl #3]
     fb2:	3301      	adds	r3, #1
     fb4:	f515 7f81 	cmn.w	r5, #258	; 0x102
     fb8:	d1f7      	bne.n	faa <UART0IntHandler+0x3e>
     fba:	eb02 03c3 	add.w	r3, r2, r3, lsl #3
     fbe:	889b      	ldrh	r3, [r3, #4]
     fc0:	8013      	strh	r3, [r2, #0]
     fc2:	6ad2      	ldr	r2, [r2, #44]	; 0x2c
     fc4:	e7ea      	b.n	f9c <UART0IntHandler+0x30>
	}

	if (uart_a_room_in_tx && (__pi_uart->flags & UART_FLAGS_OUT)) {
     fc6:	6823      	ldr	r3, [r4, #0]
     fc8:	0699      	lsls	r1, r3, #26
     fca:	d424      	bmi.n	1016 <UART0IntHandler+0xaa>
     fcc:	4b14      	ldr	r3, [pc, #80]	; (1020 <UART0IntHandler+0xb4>)
     fce:	799a      	ldrb	r2, [r3, #6]
     fd0:	0652      	lsls	r2, r2, #25
     fd2:	d520      	bpl.n	1016 <UART0IntHandler+0xaa>
		_BIC (__pi_uart->flags, UART_FLAGS_OUT);
		RISE_N_SHINE;
		i_trigger (devevent (UART_A, WRITE));
     fd4:	f46f 7480 	mvn.w	r4, #256	; 0x100
		_BIC (__pi_uart->flags, UART_FLAGS_OUT);
     fd8:	799a      	ldrb	r2, [r3, #6]
     fda:	f002 02bf 	and.w	r2, r2, #191	; 0xbf
     fde:	719a      	strb	r2, [r3, #6]
		RISE_N_SHINE;
     fe0:	4a10      	ldr	r2, [pc, #64]	; (1024 <UART0IntHandler+0xb8>)
     fe2:	7813      	ldrb	r3, [r2, #0]
     fe4:	f043 0302 	orr.w	r3, r3, #2
     fe8:	7013      	strb	r3, [r2, #0]
		i_trigger (devevent (UART_A, WRITE));
     fea:	4b0f      	ldr	r3, [pc, #60]	; (1028 <UART0IntHandler+0xbc>)
     fec:	681a      	ldr	r2, [r3, #0]
     fee:	b192      	cbz	r2, 1016 <UART0IntHandler+0xaa>
     ff0:	4610      	mov	r0, r2
     ff2:	2300      	movs	r3, #0
     ff4:	f830 1b10 	ldrh.w	r1, [r0], #16
     ff8:	f001 0107 	and.w	r1, r1, #7
     ffc:	4299      	cmp	r1, r3
     ffe:	dd08      	ble.n	1012 <UART0IntHandler+0xa6>
    1000:	f850 5033 	ldr.w	r5, [r0, r3, lsl #3]
    1004:	3301      	adds	r3, #1
    1006:	42a5      	cmp	r5, r4
    1008:	d1f8      	bne.n	ffc <UART0IntHandler+0x90>
    100a:	eb02 03c3 	add.w	r3, r2, r3, lsl #3
    100e:	889b      	ldrh	r3, [r3, #4]
    1010:	8013      	strh	r3, [r2, #0]
    1012:	6ad2      	ldr	r2, [r2, #44]	; 0x2c
    1014:	e7eb      	b.n	fee <UART0IntHandler+0x82>
	}

	RTNI;
}
    1016:	bd30      	pop	{r4, r5, pc}
    1018:	40001044 	andmi	r1, r0, r4, asr #32
    101c:	40001018 	andmi	r1, r0, r8, lsl r0
    1020:	200006a0 	andcs	r0, r0, r0, lsr #13
    1024:	200006b4 			; <UNDEFINED> instruction: 0x200006b4
    1028:	20000584 	andcs	r0, r0, r4, lsl #11

0000102c <__buttons_setirq>:

// ============================================================================

#ifdef	BUTTON_LIST

void __buttons_setirq (int val) {
    102c:	b570      	push	{r4, r5, r6, lr}
    102e:	b672      	cpsid	i
    ASSERT( dioNumberLegal( dioNumber ));

    //
    // Clear the event status for the specified DIO.
    //
    HWREG( GPIO_BASE + GPIO_O_EVFLAGS31_0 ) = ( 1 << dioNumber );
    1030:	2101      	movs	r1, #1
	int i;
	lword bn;

	cli;
	for (i = 0; i < N_BUTTONS; i++) {
		bn = BUTTON_GPIO (__button_list [i]);
    1032:	4e0c      	ldr	r6, [pc, #48]	; (1064 <__buttons_setirq+0x38>)
    1034:	4d0c      	ldr	r5, [pc, #48]	; (1068 <__buttons_setirq+0x3c>)
    1036:	8833      	ldrh	r3, [r6, #0]
		GPIO_clearEventDio (bn);
		HWREGBITW (IOC_BASE + (bn << 2), IOC_IOCFG0_EDGE_IRQ_EN_BITN) =
    1038:	4c0c      	ldr	r4, [pc, #48]	; (106c <__buttons_setirq+0x40>)
		bn = BUTTON_GPIO (__button_list [i]);
    103a:	0a1b      	lsrs	r3, r3, #8
    103c:	fa01 f203 	lsl.w	r2, r1, r3
    1040:	602a      	str	r2, [r5, #0]
		HWREGBITW (IOC_BASE + (bn << 2), IOC_IOCFG0_EDGE_IRQ_EN_BITN) =
    1042:	01da      	lsls	r2, r3, #7
		bn = BUTTON_GPIO (__button_list [i]);
    1044:	8873      	ldrh	r3, [r6, #2]
		HWREGBITW (IOC_BASE + (bn << 2), IOC_IOCFG0_EDGE_IRQ_EN_BITN) =
    1046:	f102 7281 	add.w	r2, r2, #16908288	; 0x1020000
		bn = BUTTON_GPIO (__button_list [i]);
    104a:	0a1b      	lsrs	r3, r3, #8
    104c:	4099      	lsls	r1, r3
		HWREGBITW (IOC_BASE + (bn << 2), IOC_IOCFG0_EDGE_IRQ_EN_BITN) =
    104e:	01db      	lsls	r3, r3, #7
    1050:	f103 7381 	add.w	r3, r3, #16908288	; 0x1020000
    1054:	4322      	orrs	r2, r4
    1056:	4323      	orrs	r3, r4
    1058:	6010      	str	r0, [r2, #0]
    105a:	6029      	str	r1, [r5, #0]
    105c:	6018      	str	r0, [r3, #0]
  __ASM volatile ("cpsie i" : : : "memory");
    105e:	b662      	cpsie	i
			val;
	}
	sti;
}
    1060:	bd70      	pop	{r4, r5, r6, pc}
    1062:	bf00      	nop
    1064:	00005026 	andeq	r5, r0, r6, lsr #32
    1068:	400220e0 	andmi	r2, r2, r0, ror #1
    106c:	42000048 	andmi	r0, r0, #72	; 0x48

00001070 <__pinlist_setirq>:

#endif

#ifdef	INPUT_PIN_LIST

void __pinlist_setirq (int val) {
    1070:	b5f0      	push	{r4, r5, r6, r7, lr}
  __ASM volatile ("cpsid i" : : : "memory");
    1072:	b672      	cpsid	i

	int i;
	lword bn;

	cli;
	for (i = 0; i < N_PINLIST; i++) {
    1074:	2200      	movs	r2, #0
    1076:	2601      	movs	r6, #1
		bn = INPUT_PINLIST_GPIO (__input_pins [i]);
    1078:	4f09      	ldr	r7, [pc, #36]	; (10a0 <__pinlist_setirq+0x30>)
    107a:	4c0a      	ldr	r4, [pc, #40]	; (10a4 <__pinlist_setirq+0x34>)
		GPIO_clearEventDio (bn);
		HWREGBITW (IOC_BASE + (bn << 2), IOC_IOCFG0_EDGE_IRQ_EN_BITN) =
    107c:	490a      	ldr	r1, [pc, #40]	; (10a8 <__pinlist_setirq+0x38>)
		bn = INPUT_PINLIST_GPIO (__input_pins [i]);
    107e:	5cbb      	ldrb	r3, [r7, r2]
	for (i = 0; i < N_PINLIST; i++) {
    1080:	3201      	adds	r2, #1
		bn = INPUT_PINLIST_GPIO (__input_pins [i]);
    1082:	f003 037f 	and.w	r3, r3, #127	; 0x7f
    1086:	fa06 f503 	lsl.w	r5, r6, r3
		HWREGBITW (IOC_BASE + (bn << 2), IOC_IOCFG0_EDGE_IRQ_EN_BITN) =
    108a:	01db      	lsls	r3, r3, #7
    108c:	f103 7381 	add.w	r3, r3, #16908288	; 0x1020000
    1090:	430b      	orrs	r3, r1
	for (i = 0; i < N_PINLIST; i++) {
    1092:	2a04      	cmp	r2, #4
    1094:	6025      	str	r5, [r4, #0]
		HWREGBITW (IOC_BASE + (bn << 2), IOC_IOCFG0_EDGE_IRQ_EN_BITN) =
    1096:	6018      	str	r0, [r3, #0]
	for (i = 0; i < N_PINLIST; i++) {
    1098:	d1f1      	bne.n	107e <__pinlist_setirq+0xe>
  __ASM volatile ("cpsie i" : : : "memory");
    109a:	b662      	cpsie	i
			val;
	}
	sti;
}
    109c:	bdf0      	pop	{r4, r5, r6, r7, pc}
    109e:	bf00      	nop
    10a0:	00005021 	andeq	r5, r0, r1, lsr #32
    10a4:	400220e0 	andmi	r2, r2, r0, ror #1
    10a8:	42000048 	andmi	r0, r0, #72	; 0x48

000010ac <GPIOIntHandler>:
void GPIOIntHandler () {
    10ac:	b570      	push	{r4, r5, r6, lr}
if (buttons_int) {
    10ae:	4c23      	ldr	r4, [pc, #140]	; (113c <GPIOIntHandler+0x90>)
    10b0:	6822      	ldr	r2, [r4, #0]
    10b2:	f412 4fc0 	tst.w	r2, #24576	; 0x6000
    10b6:	d01e      	beq.n	10f6 <GPIOIntHandler+0x4a>
	buttons_disable ();
    10b8:	2000      	movs	r0, #0
    10ba:	f7ff ffb7 	bl	102c <__buttons_setirq>
	i_trigger ((aword)&__button_list);
    10be:	4b20      	ldr	r3, [pc, #128]	; (1140 <GPIOIntHandler+0x94>)
    10c0:	4d20      	ldr	r5, [pc, #128]	; (1144 <GPIOIntHandler+0x98>)
    10c2:	681a      	ldr	r2, [r3, #0]
    10c4:	b192      	cbz	r2, 10ec <GPIOIntHandler+0x40>
    10c6:	4610      	mov	r0, r2
    10c8:	2300      	movs	r3, #0
    10ca:	f830 1b10 	ldrh.w	r1, [r0], #16
    10ce:	f001 0107 	and.w	r1, r1, #7
    10d2:	4299      	cmp	r1, r3
    10d4:	dd08      	ble.n	10e8 <GPIOIntHandler+0x3c>
    10d6:	f850 6033 	ldr.w	r6, [r0, r3, lsl #3]
    10da:	3301      	adds	r3, #1
    10dc:	42ae      	cmp	r6, r5
    10de:	d1f8      	bne.n	10d2 <GPIOIntHandler+0x26>
    10e0:	eb02 03c3 	add.w	r3, r2, r3, lsl #3
    10e4:	889b      	ldrh	r3, [r3, #4]
    10e6:	8013      	strh	r3, [r2, #0]
    10e8:	6ad2      	ldr	r2, [r2, #44]	; 0x2c
    10ea:	e7eb      	b.n	10c4 <GPIOIntHandler+0x18>
	RISE_N_SHINE;
    10ec:	4a16      	ldr	r2, [pc, #88]	; (1148 <GPIOIntHandler+0x9c>)
    10ee:	7813      	ldrb	r3, [r2, #0]
    10f0:	f043 0302 	orr.w	r3, r3, #2
    10f4:	7013      	strb	r3, [r2, #0]
if (pin_sensor_int) {
    10f6:	6823      	ldr	r3, [r4, #0]
    10f8:	f013 5ff0 	tst.w	r3, #503316480	; 0x1e000000
    10fc:	d01d      	beq.n	113a <GPIOIntHandler+0x8e>
	i_trigger ((aword)(&__input_pins));
    10fe:	4b10      	ldr	r3, [pc, #64]	; (1140 <GPIOIntHandler+0x94>)
    1100:	4c12      	ldr	r4, [pc, #72]	; (114c <GPIOIntHandler+0xa0>)
    1102:	6818      	ldr	r0, [r3, #0]
    1104:	b190      	cbz	r0, 112c <GPIOIntHandler+0x80>
    1106:	4601      	mov	r1, r0
    1108:	2300      	movs	r3, #0
    110a:	f831 2b10 	ldrh.w	r2, [r1], #16
    110e:	f002 0207 	and.w	r2, r2, #7
    1112:	429a      	cmp	r2, r3
    1114:	dd08      	ble.n	1128 <GPIOIntHandler+0x7c>
    1116:	f851 5033 	ldr.w	r5, [r1, r3, lsl #3]
    111a:	3301      	adds	r3, #1
    111c:	42a5      	cmp	r5, r4
    111e:	d1f8      	bne.n	1112 <GPIOIntHandler+0x66>
    1120:	eb00 03c3 	add.w	r3, r0, r3, lsl #3
    1124:	889b      	ldrh	r3, [r3, #4]
    1126:	8003      	strh	r3, [r0, #0]
    1128:	6ac0      	ldr	r0, [r0, #44]	; 0x2c
    112a:	e7eb      	b.n	1104 <GPIOIntHandler+0x58>
	__pinsen_disable_and_clear;
    112c:	f7ff ffa0 	bl	1070 <__pinlist_setirq>
	RISE_N_SHINE;
    1130:	4a05      	ldr	r2, [pc, #20]	; (1148 <GPIOIntHandler+0x9c>)
    1132:	7813      	ldrb	r3, [r2, #0]
    1134:	f043 0302 	orr.w	r3, r3, #2
    1138:	7013      	strb	r3, [r2, #0]
}
    113a:	bd70      	pop	{r4, r5, r6, pc}
    113c:	400220e0 	andmi	r2, r2, r0, ror #1
    1140:	20000584 	andcs	r0, r0, r4, lsl #11
    1144:	00005026 	andeq	r5, r0, r6, lsr #32
    1148:	200006b4 			; <UNDEFINED> instruction: 0x200006b4
    114c:	00005021 	andeq	r5, r0, r1, lsr #32

00001150 <system_init>:
#endif

// ============================================================================
// ============================================================================

void system_init () {
    1150:	e92d 47f0 	stmdb	sp!, {r4, r5, r6, r7, r8, r9, sl, lr}

	__pi_ondomain (PRCM_DOMAIN_PERIPH);

	PRCMPeripheralRunEnable (PRCM_PERIPH_GPIO);
    1154:	4c58      	ldr	r4, [pc, #352]	; (12b8 <system_init+0x168>)
	__pi_ondomain (PRCM_DOMAIN_PERIPH);
    1156:	2004      	movs	r0, #4
    1158:	f7ff fcec 	bl	b34 <__pi_ondomain>
	PRCMPeripheralRunEnable (PRCM_PERIPH_GPIO);
    115c:	6823      	ldr	r3, [r4, #0]
    115e:	f44f 60a0 	mov.w	r0, #1280	; 0x500
    1162:	69db      	ldr	r3, [r3, #28]
    1164:	4798      	blx	r3
	PRCMPeripheralSleepEnable (PRCM_PERIPH_GPIO);
    1166:	6823      	ldr	r3, [r4, #0]
    1168:	f44f 60a0 	mov.w	r0, #1280	; 0x500
    116c:	6a5b      	ldr	r3, [r3, #36]	; 0x24
    116e:	4798      	blx	r3
	PRCMPeripheralDeepSleepEnable (PRCM_PERIPH_GPIO);
    1170:	6823      	ldr	r3, [r4, #0]
    1172:	f44f 60a0 	mov.w	r0, #1280	; 0x500
    1176:	6adb      	ldr	r3, [r3, #44]	; 0x2c
    1178:	4798      	blx	r3
PRCMLoadSet(void)
{
    //
    // Enable the update of all load related registers.
    //
    HWREG(PRCM_NONBUF_BASE + PRCM_O_CLKLOADCTL) = PRCM_CLKLOADCTL_LOAD;
    117a:	2301      	movs	r3, #1
	for (int i = 0; i < sizeof (port_confs) / sizeof (lword); i++) {
    117c:	2600      	movs	r6, #0
    117e:	4c4f      	ldr	r4, [pc, #316]	; (12bc <system_init+0x16c>)
    1180:	4f4f      	ldr	r7, [pc, #316]	; (12c0 <system_init+0x170>)
		HWREG (IOC_BASE + (pin << 2)) = port_confs [i] & 0x7f077f3f;
    1182:	f8df c17c 	ldr.w	ip, [pc, #380]	; 1300 <system_init+0x1b0>
    HWREGBITW( GPIO_BASE + GPIO_O_DOE31_0, dioNumber ) = outputEnableValue;
    1186:	f8df e17c 	ldr.w	lr, [pc, #380]	; 1304 <system_init+0x1b4>
    HWREG( GPIO_BASE + GPIO_O_DOUTCLR31_0 ) = ( 1 << dioNumber );
    118a:	f8df 8140 	ldr.w	r8, [pc, #320]	; 12cc <system_init+0x17c>
    HWREG( GPIO_BASE + GPIO_O_DOUTSET31_0 ) = ( 1 << dioNumber );
    118e:	f8df 9134 	ldr.w	r9, [pc, #308]	; 12c4 <system_init+0x174>
    1192:	6023      	str	r3, [r4, #0]
		pin = (port_confs [i] >> 19) & 0x1f;
    1194:	f857 5b04 	ldr.w	r5, [r7], #4
	for (int i = 0; i < sizeof (port_confs) / sizeof (lword); i++) {
    1198:	3601      	adds	r6, #1
		pin = (port_confs [i] >> 19) & 0x1f;
    119a:	f3c5 42c4 	ubfx	r2, r5, #19, #5
		HWREG (IOC_BASE + (pin << 2)) = port_confs [i] & 0x7f077f3f;
    119e:	0091      	lsls	r1, r2, #2
    11a0:	f101 4080 	add.w	r0, r1, #1073741824	; 0x40000000
    11a4:	f500 2001 	add.w	r0, r0, #528384	; 0x81000
    11a8:	ea05 0a0c 	and.w	sl, r5, ip
    11ac:	f8c0 a000 	str.w	sl, [r0]
		if (port_confs [i] & 0x80)
    11b0:	0628      	lsls	r0, r5, #24
    HWREGBITW( GPIO_BASE + GPIO_O_DOE31_0, dioNumber ) = outputEnableValue;
    11b2:	bf44      	itt	mi
    11b4:	ea41 010e 	orrmi.w	r1, r1, lr
    11b8:	600b      	strmi	r3, [r1, #0]
		if (port_confs [i] & 0x40)
    11ba:	fa03 f202 	lsl.w	r2, r3, r2
    11be:	0669      	lsls	r1, r5, #25
    HWREG( GPIO_BASE + GPIO_O_DOUTSET31_0 ) = ( 1 << dioNumber );
    11c0:	bf4c      	ite	mi
    11c2:	f8c9 2000 	strmi.w	r2, [r9]
    HWREG( GPIO_BASE + GPIO_O_DOUTCLR31_0 ) = ( 1 << dioNumber );
    11c6:	f8c8 2000 	strpl.w	r2, [r8]
	for (int i = 0; i < sizeof (port_confs) / sizeof (lword); i++) {
    11ca:	2e11      	cmp	r6, #17
    11cc:	d1e2      	bne.n	1194 <system_init+0x44>
    HWREG( GPIO_BASE + GPIO_O_DOUTSET31_0 ) = ( 1 << dioNumber );
    11ce:	2540      	movs	r5, #64	; 0x40
    11d0:	2680      	movs	r6, #128	; 0x80
    11d2:	4b3c      	ldr	r3, [pc, #240]	; (12c4 <system_init+0x174>)

	// Initialize DIO ports
	port_config ();

#if	LEDS_DRIVER
	all_leds_blink;
    11d4:	493c      	ldr	r1, [pc, #240]	; (12c8 <system_init+0x178>)
    11d6:	601d      	str	r5, [r3, #0]
    11d8:	601e      	str	r6, [r3, #0]
    11da:	780b      	ldrb	r3, [r1, #0]
    11dc:	780b      	ldrb	r3, [r1, #0]
    11de:	20c8      	movs	r0, #200	; 0xc8
    11e0:	f36f 1307 	bfc	r3, #4, #4
    11e4:	700b      	strb	r3, [r1, #0]
    11e6:	f7ff fc8f 	bl	b08 <mdelay>
    HWREG( GPIO_BASE + GPIO_O_DOUTCLR31_0 ) = ( 1 << dioNumber );
    11ea:	4b38      	ldr	r3, [pc, #224]	; (12cc <system_init+0x17c>)
    11ec:	20c8      	movs	r0, #200	; 0xc8
    11ee:	601d      	str	r5, [r3, #0]
    11f0:	601e      	str	r6, [r3, #0]

	// The autoincrement value on channel 2 set to 1 msec
	AONRTCIncValueCh2Set (TCI_TINCR (1));
	// Enable continuous operation of channel 2
	HWREGBITW (AON_RTC_BASE + AON_RTC_O_CHCTL,
		AON_RTC_CHCTL_CH2_CONT_EN_BITN) = 1;
    11f2:	2601      	movs	r6, #1
	all_leds_blink;
    11f4:	780b      	ldrb	r3, [r1, #0]
    11f6:	780b      	ldrb	r3, [r1, #0]
    11f8:	f36f 1307 	bfc	r3, #4, #4
    11fc:	700b      	strb	r3, [r1, #0]
    11fe:	f7ff fc83 	bl	b08 <mdelay>
//
//*****************************************************************************
__STATIC_INLINE void
AONRTCIncValueCh2Set(uint32_t ui32IncValue)
{
    HWREG(AON_RTC_BASE + AON_RTC_O_CH2CMPINC) = ui32IncValue;
    1202:	4b33      	ldr	r3, [pc, #204]	; (12d0 <system_init+0x180>)

	// Define the combined event as consisting of channels 0 and 2 and
	// enable the clock
	HWREG (AON_RTC_BASE + AON_RTC_O_CTL) =
    1204:	4a33      	ldr	r2, [pc, #204]	; (12d4 <system_init+0x184>)
    1206:	601d      	str	r5, [r3, #0]
		AON_RTC_CHCTL_CH2_CONT_EN_BITN) = 1;
    1208:	4b33      	ldr	r3, [pc, #204]	; (12d8 <system_init+0x188>)
		// For the radio
		AON_RTC_CTL_RTC_UPD_EN |
		AON_RTC_CTL_EN;

	// Enable RTC interrupts
	IntEnable (INT_AON_RTC_COMB);
    120a:	4d34      	ldr	r5, [pc, #208]	; (12dc <system_init+0x18c>)
		AON_RTC_CHCTL_CH2_CONT_EN_BITN) = 1;
    120c:	601e      	str	r6, [r3, #0]
	HWREG (AON_RTC_BASE + AON_RTC_O_CTL) =
    120e:	4b34      	ldr	r3, [pc, #208]	; (12e0 <system_init+0x190>)
	IntEnable (INT_AON_RTC_COMB);
    1210:	2014      	movs	r0, #20
	HWREG (AON_RTC_BASE + AON_RTC_O_CTL) =
    1212:	601a      	str	r2, [r3, #0]
	IntEnable (INT_AON_RTC_COMB);
    1214:	682b      	ldr	r3, [r5, #0]
    1216:	691b      	ldr	r3, [r3, #16]
    1218:	4798      	blx	r3

	// Initialize the memory allocator
	__pi_malloc_init ();
    121a:	f000 fbf9 	bl	1a10 <__pi_malloc_init>

	// Enable GPIO interrupts
	IntEnable (INT_AON_GPIO_EDGE);
    121e:	682b      	ldr	r3, [r5, #0]
    1220:	2010      	movs	r0, #16
    1222:	691b      	ldr	r3, [r3, #16]
    1224:	4798      	blx	r3
		EMERGENCY_STARTUP_ACTION;
	}
#endif

#ifdef	NEED_SERIAL_DOMAIN
	__pi_ondomain (PRCM_DOMAIN_SERIAL);
    1226:	2002      	movs	r0, #2
    1228:	f7ff fc84 	bl	b34 <__pi_ondomain>
	PRCMPeripheralRunEnable (PRCM_PERIPH_UART0);
    122c:	68ab      	ldr	r3, [r5, #8]
    122e:	f44f 7000 	mov.w	r0, #512	; 0x200
    1232:	69db      	ldr	r3, [r3, #28]
    1234:	4798      	blx	r3
	PRCMPeripheralSleepEnable (PRCM_PERIPH_UART0);
    1236:	68ab      	ldr	r3, [r5, #8]
    1238:	f44f 7000 	mov.w	r0, #512	; 0x200
    123c:	6a5b      	ldr	r3, [r3, #36]	; 0x24
    123e:	4798      	blx	r3
	PRCMPeripheralDeepSleepEnable (PRCM_PERIPH_UART0);
    1240:	68ab      	ldr	r3, [r5, #8]
    1242:	f44f 7000 	mov.w	r0, #512	; 0x200
    1246:	6adb      	ldr	r3, [r3, #44]	; 0x2c
    1248:	4798      	blx	r3
	urates [0] = UART_RATE / 100;
    124a:	2260      	movs	r2, #96	; 0x60
    124c:	4b25      	ldr	r3, [pc, #148]	; (12e4 <system_init+0x194>)
    124e:	6026      	str	r6, [r4, #0]
    1250:	801a      	strh	r2, [r3, #0]
	reinit_uart ();
    1252:	f7ff fde7 	bl	e24 <reinit_uart>
	__pi_init_actuators ();
#endif

#ifdef	EXTRA_INITIALIZERS
	// Extra initialization
	EXTRA_INITIALIZERS;
    1256:	f001 f977 	bl	2548 <ee_open>
    125a:	f001 f97f 	bl	255c <ee_close>
#endif
	// If waking from shutdown, unfreeze the I/O
	if (SysCtrlResetSourceGet () == RSTSRC_WAKEUP_FROM_SHUTDOWN) {
    125e:	f003 fa49 	bl	46f4 <NOROM_SysCtrlResetSourceGet>
    1262:	2808      	cmp	r0, #8
    1264:	d11a      	bne.n	129c <system_init+0x14c>
AONIOCFreezeDisable(void)
{
    //
    // Set the AON IOC latches as transparent.
    //
    HWREG(AON_IOC_BASE + AON_IOC_O_IOCLATCH) = AON_IOC_IOCLATCH_EN;
    1266:	4b20      	ldr	r3, [pc, #128]	; (12e8 <system_init+0x198>)
    1268:	601e      	str	r6, [r3, #0]
{
    //
    // Open the IO latches at AON_IOC level and in the padring
    //
    AONIOCFreezeDisable();
    HWREG(AON_SYSCTL_BASE + AON_SYSCTL_O_SLEEPCTL) = 1;
    126a:	f5a3 4380 	sub.w	r3, r3, #16384	; 0x4000
    126e:	3b04      	subs	r3, #4
    1270:	601e      	str	r6, [r3, #0]
    HWREG(AON_RTC_BASE + AON_RTC_O_SYNC);
    1272:	f503 5300 	add.w	r3, r3, #8192	; 0x2000
    1276:	3324      	adds	r3, #36	; 0x24
    1278:	681b      	ldr	r3, [r3, #0]
	}

#if	MAX_DEVICES
	for (int i = UART; i < MAX_DEVICES; i++)
		if (devinit [i] . init != NULL)
			devinit [i] . init (devinit [i] . param);
    127a:	2000      	movs	r0, #0
    127c:	f7ff fc28 	bl	ad0 <devinit_uart>
    HWREG(ui32Base + UART_O_IMSC) |= ui32IntFlags;
    1280:	4a1a      	ldr	r2, [pc, #104]	; (12ec <system_init+0x19c>)
#endif

#ifdef	N_UARTS
	// The same for UART_DRIVER and UART_TCV
	enable_uart_interrupts ();
	IntEnable (INT_UART0_COMB);
    1282:	2015      	movs	r0, #21
    1284:	6813      	ldr	r3, [r2, #0]
    1286:	f043 0370 	orr.w	r3, r3, #112	; 0x70
    128a:	6013      	str	r3, [r2, #0]
    128c:	4b13      	ldr	r3, [pc, #76]	; (12dc <system_init+0x18c>)
    128e:	681b      	ldr	r3, [r3, #0]
    1290:	691b      	ldr	r3, [r3, #16]
    1292:	4798      	blx	r3
#endif
	// Kick the auxiliary timer in case something is needed by the
	// drivers
	tci_run_auxiliary_timer ();
}
    1294:	e8bd 47f0 	ldmia.w	sp!, {r4, r5, r6, r7, r8, r9, sl, lr}
	tci_run_auxiliary_timer ();
    1298:	f7ff bcd4 	b.w	c44 <tci_run_auxiliary_timer>
		diag ("");
    129c:	4814      	ldr	r0, [pc, #80]	; (12f0 <system_init+0x1a0>)
    129e:	f000 fca5 	bl	1bec <diag>
		diag ("PicOS v" SYSVER_S "/" SYSVER_R
    12a2:	4814      	ldr	r0, [pc, #80]	; (12f4 <system_init+0x1a4>)
    12a4:	f000 fca2 	bl	1bec <diag>
			(word)((aword)STACK_END - (aword)(&__bss_end__)));
    12a8:	4913      	ldr	r1, [pc, #76]	; (12f8 <system_init+0x1a8>)
		diag ("Leftover RAM: %d bytes",
    12aa:	4814      	ldr	r0, [pc, #80]	; (12fc <system_init+0x1ac>)
    12ac:	f5c1 4198 	rsb	r1, r1, #19456	; 0x4c00
    12b0:	b289      	uxth	r1, r1
    12b2:	f000 fc9b 	bl	1bec <diag>
    12b6:	e7e0      	b.n	127a <system_init+0x12a>
    12b8:	100001b8 			; <UNDEFINED> instruction: 0x100001b8
    12bc:	60082028 	andvs	r2, r8, r8, lsr #32
    12c0:	00004f08 	andeq	r4, r0, r8, lsl #30
    12c4:	40022090 	mulmi	r2, r0, r0
    12c8:	200006b4 			; <UNDEFINED> instruction: 0x200006b4
    12cc:	400220a0 	andmi	r2, r2, r0, lsr #1
    12d0:	40092024 	andmi	r2, r9, r4, lsr #32
    12d4:	00050003 	andeq	r0, r5, r3
    12d8:	432402c8 			; <UNDEFINED> instruction: 0x432402c8
    12dc:	100001b0 			; <UNDEFINED> instruction: 0x100001b0
    12e0:	40092000 	andmi	r2, r9, r0
    12e4:	20000580 	andcs	r0, r0, r0, lsl #11
    12e8:	4009400c 	andmi	r4, r9, ip
    12ec:	40001038 	andmi	r1, r0, r8, lsr r0
    12f0:	00004966 	andeq	r4, r0, r6, ror #18
    12f4:	00004e95 	muleq	r0, r5, lr
    12f8:	200006d4 	ldrdcs	r0, [r0], -r4
    12fc:	00004ee1 	andeq	r4, r0, r1, ror #29
    1300:	7f077f3f 	svcvc	0x00077f3f
    1304:	42441a00 	submi	r1, r4, #0, 20

00001308 <setpowermode>:
//
	if (mode > 3)
		// This is the maximum
		mode = 3;

	__pi_systat.effpdm = ((__pi_systat.reqpdm = mode) < 2 ||
    1308:	2803      	cmp	r0, #3
    130a:	4603      	mov	r3, r0
    130c:	bf28      	it	cs
    130e:	2303      	movcs	r3, #3
    1310:	4a05      	ldr	r2, [pc, #20]	; (1328 <setpowermode+0x20>)
    1312:	b2db      	uxtb	r3, r3
    1314:	2801      	cmp	r0, #1
    1316:	7093      	strb	r3, [r2, #2]
    1318:	d904      	bls.n	1324 <setpowermode+0x1c>
	    (__pi_systat.ondmns & PRCM_DOMAIN_RFCORE) == 0) ?
    131a:	6851      	ldr	r1, [r2, #4]
	__pi_systat.effpdm = ((__pi_systat.reqpdm = mode) < 2 ||
    131c:	f011 0f01 	tst.w	r1, #1
    1320:	bf18      	it	ne
    1322:	2301      	movne	r3, #1
    1324:	70d3      	strb	r3, [r2, #3]
		mode : 1;
}
    1326:	4770      	bx	lr
    1328:	200006b4 			; <UNDEFINED> instruction: 0x200006b4

0000132c <__pi_release>:
	return sc;
}

#endif

__attribute__ ((noreturn)) void __pi_release () {
    132c:	e92d 4880 	stmdb	sp!, {r7, fp, lr}
    1330:	b083      	sub	sp, #12
  \details Assigns the given value to the Main Stack Pointer (MSP).
  \param [in]    topOfMainStack  Main Stack Pointer value to set
 */
__attribute__((always_inline)) __STATIC_INLINE void __set_MSP(uint32_t topOfMainStack)
{
  __ASM volatile ("MSR msp, %0" : : "r" (topOfMainStack) : "sp");
    1332:	4b79      	ldr	r3, [pc, #484]	; (1518 <__pi_release+0x1ec>)
    1334:	af00      	add	r7, sp, #0
    1336:	f383 8808 	msr	MSP, r3

	__set_MSP ((lword)(STACK_START));

	check_stack_overflow;
    133a:	f2a3 4304 	subw	r3, r3, #1028	; 0x404
    133e:	681a      	ldr	r2, [r3, #0]
    1340:	4b76      	ldr	r3, [pc, #472]	; (151c <__pi_release+0x1f0>)
    1342:	429a      	cmp	r2, r3
    1344:	d127      	bne.n	1396 <__pi_release+0x6a>
SysCtrlAonSync(void)
{
    //
    // Sync the AON interface
    //
    HWREG(AON_RTC_BASE + AON_RTC_O_SYNC);
    1346:	4e76      	ldr	r6, [pc, #472]	; (1520 <__pi_release+0x1f4>)

#ifdef	MONITOR_PIN_SCHED
	_PVS (MONITOR_PIN_SCHED, 1);
#endif
	// Catch up with time
	update_n_wake (MAX_WORD, NO);
    1348:	2100      	movs	r1, #0
    134a:	f64f 70ff 	movw	r0, #65535	; 0xffff
    134e:	f000 f9ed 	bl	172c <update_n_wake>

	// Run the first ready process
	for_all_tasks (__pi_curr) {
    1352:	4a74      	ldr	r2, [pc, #464]	; (1524 <__pi_release+0x1f8>)
    1354:	4b74      	ldr	r3, [pc, #464]	; (1528 <__pi_release+0x1fc>)
    1356:	6812      	ldr	r2, [r2, #0]
    1358:	601a      	str	r2, [r3, #0]
    135a:	681a      	ldr	r2, [r3, #0]
    135c:	b9fa      	cbnz	r2, 139e <__pi_release+0x72>
			HWREG (NVIC_SYS_CTRL) |= NVIC_SYS_CTRL_SLEEPDEEP;
    135e:	4c73      	ldr	r4, [pc, #460]	; (152c <__pi_release+0x200>)
  __ASM volatile ("cpsid i" : : : "memory");
    1360:	b672      	cpsid	i
	entropy++;
#endif

#else	/* NOT SPIN_WHEN_HALTED */

	__SLEEP;
    1362:	4d73      	ldr	r5, [pc, #460]	; (1530 <__pi_release+0x204>)
    1364:	782b      	ldrb	r3, [r5, #0]
    1366:	f3c3 0240 	ubfx	r2, r3, #1, #1
    136a:	0798      	lsls	r0, r3, #30
    136c:	607a      	str	r2, [r7, #4]
    136e:	f100 80cd 	bmi.w	150c <__pi_release+0x1e0>
	system_event_count ++;
    1372:	4a70      	ldr	r2, [pc, #448]	; (1534 <__pi_release+0x208>)
    1374:	6813      	ldr	r3, [r2, #0]
    1376:	3301      	adds	r3, #1
    1378:	6013      	str	r3, [r2, #0]
	switch (__pi_systat.effpdm) {
    137a:	78ea      	ldrb	r2, [r5, #3]
    137c:	2a01      	cmp	r2, #1
    137e:	b2d3      	uxtb	r3, r2
    1380:	d017      	beq.n	13b2 <__pi_release+0x86>
    1382:	2b02      	cmp	r3, #2
    1384:	d031      	beq.n	13ea <__pi_release+0xbe>
    1386:	2b00      	cmp	r3, #0
    1388:	f040 8095 	bne.w	14b6 <__pi_release+0x18a>
			__WFI ();
    138c:	bf30      	wfi
  __ASM volatile ("cpsie i" : : : "memory");
    138e:	b662      	cpsie	i
    1390:	bf00      	nop
    1392:	bf00      	nop
    1394:	e7e4      	b.n	1360 <__pi_release+0x34>
	check_stack_overflow;
    1396:	200b      	movs	r0, #11
    1398:	4967      	ldr	r1, [pc, #412]	; (1538 <__pi_release+0x20c>)
    139a:	f7ff fc09 	bl	bb0 <__pi_syserror>
		if (__pi_curr->code != NULL && !waiting (__pi_curr)) {
    139e:	6851      	ldr	r1, [r2, #4]
    13a0:	b129      	cbz	r1, 13ae <__pi_release+0x82>
    13a2:	8810      	ldrh	r0, [r2, #0]
    13a4:	0704      	lsls	r4, r0, #28
    13a6:	d102      	bne.n	13ae <__pi_release+0x82>
			(__pi_curr->code) (tstate (__pi_curr));
    13a8:	0900      	lsrs	r0, r0, #4
    13aa:	4788      	blx	r1
			goto Redo;
    13ac:	e7cc      	b.n	1348 <__pi_release+0x1c>
	for_all_tasks (__pi_curr) {
    13ae:	6ad2      	ldr	r2, [r2, #44]	; 0x2c
    13b0:	e7d2      	b.n	1358 <__pi_release+0x2c>
			HWREG (PRCM_BASE + PRCM_O_PDCTL1VIMS) |=
    13b2:	4a62      	ldr	r2, [pc, #392]	; (153c <__pi_release+0x210>)
			PRCMPowerDomainOff (PRCM_DOMAIN_CPU);
    13b4:	2020      	movs	r0, #32
			HWREG (PRCM_BASE + PRCM_O_PDCTL1VIMS) |=
    13b6:	6813      	ldr	r3, [r2, #0]
    13b8:	f043 0301 	orr.w	r3, r3, #1
    13bc:	6013      	str	r3, [r2, #0]
//
//*****************************************************************************
__STATIC_INLINE void
PRCMCacheRetentionEnable( void )
{
   HWREG( PRCM_BASE + PRCM_O_RAMRETEN ) |= PRCM_RAMRETEN_VIMS_M;
    13be:	f8d2 3098 	ldr.w	r3, [r2, #152]	; 0x98
    13c2:	f043 0303 	orr.w	r3, r3, #3
    13c6:	f8c2 3098 	str.w	r3, [r2, #152]	; 0x98
			PRCMPowerDomainOff (PRCM_DOMAIN_CPU);
    13ca:	4b5d      	ldr	r3, [pc, #372]	; (1540 <__pi_release+0x214>)
    13cc:	681b      	ldr	r3, [r3, #0]
    13ce:	699b      	ldr	r3, [r3, #24]
    13d0:	4798      	blx	r3
    13d2:	6833      	ldr	r3, [r6, #0]
			HWREG (NVIC_SYS_CTRL) |= NVIC_SYS_CTRL_SLEEPDEEP;
    13d4:	6823      	ldr	r3, [r4, #0]
    13d6:	f043 0304 	orr.w	r3, r3, #4
    13da:	6023      	str	r3, [r4, #0]
			__WFI ();
    13dc:	bf30      	wfi
			HWREG (NVIC_SYS_CTRL) &= ~(NVIC_SYS_CTRL_SLEEPDEEP);
    13de:	6823      	ldr	r3, [r4, #0]
    13e0:	f023 0304 	bic.w	r3, r3, #4
    13e4:	6023      	str	r3, [r4, #0]
    13e6:	6833      	ldr	r3, [r6, #0]
}
    13e8:	e7d1      	b.n	138e <__pi_release+0x62>
    HWREG(PRCM_NONBUF_BASE + PRCM_O_CLKLOADCTL) = PRCM_CLKLOADCTL_LOAD;
    13ea:	f04f 0801 	mov.w	r8, #1
    HWREG(AON_IOC_BASE + AON_IOC_O_IOCLATCH) = 0x0;
    13ee:	687a      	ldr	r2, [r7, #4]
    13f0:	4b54      	ldr	r3, [pc, #336]	; (1544 <__pi_release+0x218>)
    // Check the arguments.
    ASSERT((ui32Mode == AONWUC_AUX_WAKEUP) ||
           (ui32Mode == AONWUC_AUX_ALLOW_SLEEP));

    // Wake up the AUX domain.
    HWREGBITW(AON_WUC_BASE + AON_WUC_O_AUXCTL, AON_WUC_AUXCTL_AUX_FORCE_ON_BITN) = ui32Mode;
    13f2:	f8df b188 	ldr.w	fp, [pc, #392]	; 157c <__pi_release+0x250>
    13f6:	601a      	str	r2, [r3, #0]
    13f8:	687b      	ldr	r3, [r7, #4]
			PRCMPowerDomainOff (__pi_systat.ondmns |
    13fa:	f8df a144 	ldr.w	sl, [pc, #324]	; 1540 <__pi_release+0x214>
    13fe:	f8cb 3000 	str.w	r3, [fp]
    HWREG(AON_RTC_BASE + AON_RTC_O_SYNC);
    1402:	6833      	ldr	r3, [r6, #0]
    1404:	4b50      	ldr	r3, [pc, #320]	; (1548 <__pi_release+0x21c>)
//
//*****************************************************************************
__STATIC_INLINE void
PRCMCacheRetentionDisable( void )
{
   HWREG( PRCM_BASE + PRCM_O_RAMRETEN ) &= ~PRCM_RAMRETEN_VIMS_M;
    1406:	f8df 9178 	ldr.w	r9, [pc, #376]	; 1580 <__pi_release+0x254>
    HWREG(PRCM_NONBUF_BASE + PRCM_O_CLKLOADCTL) = PRCM_CLKLOADCTL_LOAD;
    140a:	f8c3 8000 	str.w	r8, [r3]
    140e:	6868      	ldr	r0, [r5, #4]
    1410:	f8da 3000 	ldr.w	r3, [sl]
    1414:	f040 0020 	orr.w	r0, r0, #32
    1418:	699b      	ldr	r3, [r3, #24]
    141a:	4798      	blx	r3
    HWREGBITW(PRCM_BASE + PRCM_O_VDCTL, PRCM_VDCTL_ULDO_BITN) = ui32Enable;
    141c:	4b4b      	ldr	r3, [pc, #300]	; (154c <__pi_release+0x220>)
			VIMSModeSet (VIMS_BASE, VIMS_MODE_OFF);
    141e:	2103      	movs	r1, #3
    1420:	f8c3 8000 	str.w	r8, [r3]
   HWREG( PRCM_BASE + PRCM_O_RAMRETEN ) &= ~PRCM_RAMRETEN_VIMS_M;
    1424:	f8d9 3000 	ldr.w	r3, [r9]
    1428:	4849      	ldr	r0, [pc, #292]	; (1550 <__pi_release+0x224>)
    142a:	f023 0303 	bic.w	r3, r3, #3
    142e:	f8c9 3000 	str.w	r3, [r9]
    1432:	4b48      	ldr	r3, [pc, #288]	; (1554 <__pi_release+0x228>)
    1434:	681a      	ldr	r2, [r3, #0]
    1436:	6852      	ldr	r2, [r2, #4]
    1438:	4790      	blx	r2
			SysCtrlSetRechargeBeforePowerDown
    143a:	6878      	ldr	r0, [r7, #4]
    143c:	f003 f81a 	bl	4474 <NOROM_SysCtrlSetRechargeBeforePowerDown>
    1440:	6832      	ldr	r2, [r6, #0]
			HWREG (NVIC_SYS_CTRL) |= NVIC_SYS_CTRL_SLEEPDEEP;
    1442:	6822      	ldr	r2, [r4, #0]
    1444:	f042 0204 	orr.w	r2, r2, #4
    1448:	6022      	str	r2, [r4, #0]
			__WFI ();
    144a:	bf30      	wfi
			HWREG (NVIC_SYS_CTRL) &= ~(NVIC_SYS_CTRL_SLEEPDEEP);
    144c:	6822      	ldr	r2, [r4, #0]
			VIMSModeSet (VIMS_BASE, VIMS_MODE_ENABLED);
    144e:	4b41      	ldr	r3, [pc, #260]	; (1554 <__pi_release+0x228>)
			HWREG (NVIC_SYS_CTRL) &= ~(NVIC_SYS_CTRL_SLEEPDEEP);
    1450:	f022 0204 	bic.w	r2, r2, #4
    1454:	6022      	str	r2, [r4, #0]
			VIMSModeSet (VIMS_BASE, VIMS_MODE_ENABLED);
    1456:	681b      	ldr	r3, [r3, #0]
    1458:	4641      	mov	r1, r8
    145a:	685b      	ldr	r3, [r3, #4]
    145c:	483c      	ldr	r0, [pc, #240]	; (1550 <__pi_release+0x224>)
    145e:	4798      	blx	r3
   HWREG( PRCM_BASE + PRCM_O_RAMRETEN ) |= PRCM_RAMRETEN_VIMS_M;
    1460:	f8d9 3000 	ldr.w	r3, [r9]
AONWUCPowerStatusGet(void)
{
    //
    // Return the power status.
    //
    return (HWREG(AON_WUC_BASE + AON_WUC_O_PWRSTAT));
    1464:	4a3c      	ldr	r2, [pc, #240]	; (1558 <__pi_release+0x22c>)
    1466:	f043 0303 	orr.w	r3, r3, #3
    146a:	f8c9 3000 	str.w	r3, [r9]
    HWREGBITW(AON_WUC_BASE + AON_WUC_O_AUXCTL, AON_WUC_AUXCTL_AUX_FORCE_ON_BITN) = ui32Mode;
    146e:	f8cb 8000 	str.w	r8, [fp]
    return (HWREG(AON_WUC_BASE + AON_WUC_O_PWRSTAT));
    1472:	6813      	ldr	r3, [r2, #0]
			while (!(AONWUCPowerStatusGet () &
    1474:	0699      	lsls	r1, r3, #26
    1476:	d5fc      	bpl.n	1472 <__pi_release+0x146>
			PRCMPowerDomainOn (__pi_systat.ondmns);
    1478:	f8da 3000 	ldr.w	r3, [sl]
    147c:	6868      	ldr	r0, [r5, #4]
    147e:	695b      	ldr	r3, [r3, #20]
    1480:	4798      	blx	r3
			while (PRCMPowerDomainStatus (__pi_systat.ondmns) !=
    1482:	4d2f      	ldr	r5, [pc, #188]	; (1540 <__pi_release+0x214>)
    1484:	4b2a      	ldr	r3, [pc, #168]	; (1530 <__pi_release+0x204>)
    1486:	6858      	ldr	r0, [r3, #4]
    1488:	682b      	ldr	r3, [r5, #0]
    148a:	6b5b      	ldr	r3, [r3, #52]	; 0x34
    148c:	4798      	blx	r3
    148e:	2801      	cmp	r0, #1
    1490:	d1f8      	bne.n	1484 <__pi_release+0x158>
    HWREG(PRCM_NONBUF_BASE + PRCM_O_CLKLOADCTL) = PRCM_CLKLOADCTL_LOAD;
    1492:	4b2d      	ldr	r3, [pc, #180]	; (1548 <__pi_release+0x21c>)
    HWREGBITW(PRCM_BASE + PRCM_O_VDCTL, PRCM_VDCTL_ULDO_BITN) = ui32Enable;
    1494:	4a2d      	ldr	r2, [pc, #180]	; (154c <__pi_release+0x220>)
    HWREG(PRCM_NONBUF_BASE + PRCM_O_CLKLOADCTL) = PRCM_CLKLOADCTL_LOAD;
    1496:	6018      	str	r0, [r3, #0]
    HWREGBITW(PRCM_BASE + PRCM_O_VDCTL, PRCM_VDCTL_ULDO_BITN) = ui32Enable;
    1498:	2300      	movs	r3, #0
    149a:	6013      	str	r3, [r2, #0]
    HWREG(AON_IOC_BASE + AON_IOC_O_IOCLATCH) = AON_IOC_IOCLATCH_EN;
    149c:	4b29      	ldr	r3, [pc, #164]	; (1544 <__pi_release+0x218>)
    149e:	6018      	str	r0, [r3, #0]
    14a0:	6833      	ldr	r3, [r6, #0]
			SysCtrlAdjustRechargeAfterPowerDown ();
    14a2:	f003 f8f7 	bl	4694 <NOROM_SysCtrlAdjustRechargeAfterPowerDown>
			reinit_uart ();
    14a6:	f7ff fcbd 	bl	e24 <reinit_uart>
    14aa:	4a2c      	ldr	r2, [pc, #176]	; (155c <__pi_release+0x230>)
    14ac:	6813      	ldr	r3, [r2, #0]
    14ae:	f043 0370 	orr.w	r3, r3, #112	; 0x70
    14b2:	6013      	str	r3, [r2, #0]
}
    14b4:	e76b      	b.n	138e <__pi_release+0x62>
			AUXWUCPowerCtrl (AUX_WUC_POWER_OFF);
    14b6:	4b2a      	ldr	r3, [pc, #168]	; (1560 <__pi_release+0x234>)
    14b8:	2001      	movs	r0, #1
    14ba:	681b      	ldr	r3, [r3, #0]
    14bc:	68db      	ldr	r3, [r3, #12]
    14be:	4798      	blx	r3
			HWREG (AON_WUC_BASE + AON_WUC_O_AUXCTL) &=
    14c0:	4a28      	ldr	r2, [pc, #160]	; (1564 <__pi_release+0x238>)
			HWREG (AON_EVENT_BASE + AON_EVENT_O_MCUWUSEL) =
    14c2:	4929      	ldr	r1, [pc, #164]	; (1568 <__pi_release+0x23c>)
			HWREG (AON_WUC_BASE + AON_WUC_O_AUXCTL) &=
    14c4:	6813      	ldr	r3, [r2, #0]
    14c6:	f023 0301 	bic.w	r3, r3, #1
    14ca:	6013      	str	r3, [r2, #0]
			HWREG (AON_WUC_BASE + AON_WUC_O_JTAGCFG) &=
    14cc:	4b27      	ldr	r3, [pc, #156]	; (156c <__pi_release+0x240>)
    14ce:	681a      	ldr	r2, [r3, #0]
    14d0:	f422 7280 	bic.w	r2, r2, #256	; 0x100
    14d4:	601a      	str	r2, [r3, #0]
			HWREG (AON_EVENT_BASE + AON_EVENT_O_MCUWUSEL) =
    14d6:	f04f 323f 	mov.w	r2, #1061109567	; 0x3f3f3f3f
    14da:	600a      	str	r2, [r1, #0]
			HWREG (AON_EVENT_BASE + AON_EVENT_O_AUXWUSEL) =
    14dc:	604a      	str	r2, [r1, #4]
    14de:	6832      	ldr	r2, [r6, #0]
__STATIC_INLINE void
AONWUCShutDownEnable(void)
{
    // Ensure the JTAG domain is turned off;
    // otherwise MCU domain can't be turned off.
    HWREG(AON_WUC_BASE + AON_WUC_O_JTAGCFG) = 0;
    14e0:	687a      	ldr	r2, [r7, #4]
    14e2:	601a      	str	r2, [r3, #0]

    // Enable shutdown of the device.
    HWREGBITW(AON_WUC_BASE + AON_WUC_O_CTL0, AON_WUC_CTL0_PWR_DWN_DIS_BITN) = 0;
    14e4:	687a      	ldr	r2, [r7, #4]
    14e6:	4b22      	ldr	r3, [pc, #136]	; (1570 <__pi_release+0x244>)
    14e8:	601a      	str	r2, [r3, #0]
    HWREG(AON_WUC_BASE + AON_WUC_O_SHUTDOWN) = AON_WUC_SHUTDOWN_EN;
    14ea:	2201      	movs	r2, #1
    14ec:	4b21      	ldr	r3, [pc, #132]	; (1574 <__pi_release+0x248>)
    14ee:	601a      	str	r2, [r3, #0]
    14f0:	6833      	ldr	r3, [r6, #0]
    return (HWREG(AON_WUC_BASE + AON_WUC_O_PWRSTAT));
    14f2:	4a19      	ldr	r2, [pc, #100]	; (1558 <__pi_release+0x22c>)
    14f4:	6813      	ldr	r3, [r2, #0]
			while (AONWUCPowerStatusGet () & AONWUC_AUX_POWER_ON);
    14f6:	069b      	lsls	r3, r3, #26
    14f8:	d4fc      	bmi.n	14f4 <__pi_release+0x1c8>
    HWREGBITW(PRCM_BASE + PRCM_O_VDCTL, PRCM_VDCTL_MCU_VD_BITN) = 1;
    14fa:	2201      	movs	r2, #1
    14fc:	4b1e      	ldr	r3, [pc, #120]	; (1578 <__pi_release+0x24c>)
			PRCMPowerDomainOff (
    14fe:	2037      	movs	r0, #55	; 0x37
    1500:	601a      	str	r2, [r3, #0]
    1502:	4b0f      	ldr	r3, [pc, #60]	; (1540 <__pi_release+0x214>)
    1504:	681b      	ldr	r3, [r3, #0]
    1506:	699b      	ldr	r3, [r3, #24]
    1508:	4798      	blx	r3
			goto DeepSleep;
    150a:	e763      	b.n	13d4 <__pi_release+0xa8>
	__SLEEP;
    150c:	782b      	ldrb	r3, [r5, #0]
    150e:	f36f 0341 	bfc	r3, #1, #1
    1512:	702b      	strb	r3, [r5, #0]
    1514:	b662      	cpsie	i

#endif	/* SPIN_WHEN_HALTED */

	goto Redo;
    1516:	e717      	b.n	1348 <__pi_release+0x1c>
    1518:	20005000 	andcs	r5, r0, r0
    151c:	a778b779 			; <UNDEFINED> instruction: 0xa778b779
    1520:	4009202c 	andmi	r2, r9, ip, lsr #32
    1524:	20000584 	andcs	r0, r0, r4, lsl #11
    1528:	200006d0 	ldrdcs	r0, [r0], -r0	; <UNPREDICTABLE>
    152c:	e000ed10 	and	lr, r0, r0, lsl sp
    1530:	200006b4 			; <UNDEFINED> instruction: 0x200006b4
    1534:	200006a8 	andcs	r0, r0, r8, lsr #13
    1538:	00004ef8 	strdeq	r4, [r0], -r8
    153c:	4008218c 	andmi	r2, r8, ip, lsl #3
    1540:	100001b8 			; <UNDEFINED> instruction: 0x100001b8
    1544:	4009400c 	andmi	r4, r9, ip
    1548:	60082028 	andvs	r2, r8, r8, lsr #32
    154c:	43040180 	movwmi	r0, #16768	; 0x4180
    1550:	40034000 	andmi	r4, r3, r0
    1554:	100001d8 	ldrdne	r0, [r0], -r8
    1558:	40091014 	andmi	r1, r9, r4, lsl r0
    155c:	40001038 	andmi	r1, r0, r8, lsr r0
    1560:	100001a0 	andne	r0, r0, r0, lsr #3
    1564:	40091010 	andmi	r1, r9, r0, lsl r0
    1568:	40093000 	andmi	r3, r9, r0
    156c:	40091040 	andmi	r1, r9, r0, asr #32
    1570:	43220420 			; <UNDEFINED> instruction: 0x43220420
    1574:	40091018 	andmi	r1, r9, r8, lsl r0
    1578:	43040188 	movwmi	r0, #16776	; 0x4188
    157c:	43220200 			; <UNDEFINED> instruction: 0x43220200
    1580:	40082224 	andmi	r2, r8, r4, lsr #4

00001584 <halt>:
	cli_tim;
    1584:	2400      	movs	r4, #0
void halt (void) {
    1586:	b508      	push	{r3, lr}
	cli_tim;
    1588:	4b07      	ldr	r3, [pc, #28]	; (15a8 <halt+0x24>)
	diag ("PicOS halted");
    158a:	4808      	ldr	r0, [pc, #32]	; (15ac <halt+0x28>)
	cli_tim;
    158c:	601c      	str	r4, [r3, #0]
	diag ("PicOS halted");
    158e:	f000 fb2d 	bl	1bec <diag>
	mdelay (500);
    1592:	f44f 70fa 	mov.w	r0, #500	; 0x1f4
    1596:	f7ff fab7 	bl	b08 <mdelay>
	setpowermode (2);
    159a:	2002      	movs	r0, #2
    159c:	f7ff feb4 	bl	1308 <setpowermode>
	__PCB = NULL;
    15a0:	4b03      	ldr	r3, [pc, #12]	; (15b0 <halt+0x2c>)
    15a2:	601c      	str	r4, [r3, #0]
	release;
    15a4:	f7ff fec2 	bl	132c <__pi_release>
    15a8:	43240280 			; <UNDEFINED> instruction: 0x43240280
    15ac:	00004efb 	strdeq	r4, [r0], -fp
    15b0:	20000584 	andcs	r0, r0, r4, lsl #11

000015b4 <main>:

#include "scheduler.h"

}

int main (void) {
    15b4:	b510      	push	{r4, lr}
    15b6:	4b11      	ldr	r3, [pc, #68]	; (15fc <main+0x48>)

#if	STACK_GUARD
	{
		register sint i;
		for (i = 0; i < (STACK_SIZE / sizeof (lword)) - 16; i++)
			*((((lword*)STACK_END) - 1) + i) = STACK_SENTINEL;
    15b8:	4911      	ldr	r1, [pc, #68]	; (1600 <main+0x4c>)
		for (i = 0; i < (STACK_SIZE / sizeof (lword)) - 16; i++)
    15ba:	4a12      	ldr	r2, [pc, #72]	; (1604 <main+0x50>)
			*((((lword*)STACK_END) - 1) + i) = STACK_SENTINEL;
    15bc:	f843 1b04 	str.w	r1, [r3], #4
		for (i = 0; i < (STACK_SIZE / sizeof (lword)) - 16; i++)
    15c0:	4293      	cmp	r3, r2
    15c2:	d1fb      	bne.n	15bc <main+0x8>
#if	TCV_PRESENT
	tcv_init ();
#endif

	// For standby mode wakeup on timer
	AONEventMcuWakeUpSet (AON_EVENT_MCU_EVENT0, AON_EVENT_RTC_COMB_DLY);
    15c4:	4c10      	ldr	r4, [pc, #64]	; (1608 <main+0x54>)
	system_init ();
    15c6:	f7ff fdc3 	bl	1150 <system_init>
	tcv_init ();
    15ca:	f000 fef9 	bl	23c0 <tcv_init>
	AONEventMcuWakeUpSet (AON_EVENT_MCU_EVENT0, AON_EVENT_RTC_COMB_DLY);
    15ce:	6823      	ldr	r3, [r4, #0]
    15d0:	2129      	movs	r1, #41	; 0x29
    15d2:	2000      	movs	r0, #0
    15d4:	681b      	ldr	r3, [r3, #0]
    15d6:	4798      	blx	r3
	// Edge on any I/O, will it take care of UART? No, of course not!
	// But it does work for buttons.
	AONEventMcuWakeUpSet (AON_EVENT_MCU_EVENT1, AON_EVENT_IO);
    15d8:	6823      	ldr	r3, [r4, #0]
    15da:	2120      	movs	r1, #32
    15dc:	681b      	ldr	r3, [r3, #0]
    15de:	2001      	movs	r0, #1
    15e0:	4798      	blx	r3

	// Assume root process identity
	__pi_curr = (__pi_pcb_t*) fork (root, 0);
    15e2:	2100      	movs	r1, #0
    15e4:	4809      	ldr	r0, [pc, #36]	; (160c <main+0x58>)
    15e6:	f000 fadb 	bl	1ba0 <__pi_fork>
    15ea:	4b09      	ldr	r3, [pc, #36]	; (1610 <main+0x5c>)
	// Delay root startup for 16 msec to make sure that the drivers go
	// first
	delay (16, 0);
    15ec:	2100      	movs	r1, #0
	__pi_curr = (__pi_pcb_t*) fork (root, 0);
    15ee:	6018      	str	r0, [r3, #0]
	delay (16, 0);
    15f0:	2010      	movs	r0, #16
    15f2:	f000 f951 	bl	1898 <delay>
    15f6:	b662      	cpsie	i

	sti;

	__pi_release ();
    15f8:	f7ff fe98 	bl	132c <__pi_release>
    15fc:	20004bfc 	strdcs	r4, [r0], -ip
    1600:	a778b779 			; <UNDEFINED> instruction: 0xa778b779
    1604:	20004fbc 			; <UNDEFINED> instruction: 0x20004fbc
    1608:	10000184 	andne	r0, r0, r4, lsl #3
    160c:	00000555 	andeq	r0, r0, r5, asr r5
    1610:	200006d0 	ldrdcs	r0, [r0], -r0	; <UNPREDICTABLE>

00001614 <killev>:
	}

	return i->Timer - __pi_old;
}

static void killev (__pi_pcb_t *pid) {
    1614:	b570      	push	{r4, r5, r6, lr}
	aword wfun;
	int j;
	__pi_pcb_t *i;

	wfun = (aword)(pid->code);
	for_all_tasks (i) {
    1616:	4b0d      	ldr	r3, [pc, #52]	; (164c <killev+0x38>)
	wfun = (aword)(pid->code);
    1618:	6846      	ldr	r6, [r0, #4]
	for_all_tasks (i) {
    161a:	681a      	ldr	r2, [r3, #0]
    161c:	b1aa      	cbz	r2, 164a <killev+0x36>
		for (j = 0; j < nevents (i); j++) {
    161e:	4614      	mov	r4, r2
    1620:	f834 1b10 	ldrh.w	r1, [r4], #16
    1624:	2300      	movs	r3, #0
    1626:	f001 0107 	and.w	r1, r1, #7
    162a:	e001      	b.n	1630 <killev+0x1c>
			if (i->Events [j] . Event == (aword)pid
			    || i->Events [j] . Event == wfun
    162c:	42b5      	cmp	r5, r6
    162e:	d006      	beq.n	163e <killev+0x2a>
		for (j = 0; j < nevents (i); j++) {
    1630:	4299      	cmp	r1, r3
    1632:	dd08      	ble.n	1646 <killev+0x32>
			if (i->Events [j] . Event == (aword)pid
    1634:	f854 5033 	ldr.w	r5, [r4, r3, lsl #3]
    1638:	3301      	adds	r3, #1
    163a:	42a8      	cmp	r0, r5
    163c:	d1f6      	bne.n	162c <killev+0x18>
			    ) {
				wakeupev (i, j);
    163e:	eb02 03c3 	add.w	r3, r2, r3, lsl #3
    1642:	889b      	ldrh	r3, [r3, #4]
    1644:	8013      	strh	r3, [r2, #0]
	for_all_tasks (i) {
    1646:	6ad2      	ldr	r2, [r2, #44]	; 0x2c
    1648:	e7e8      	b.n	161c <killev+0x8>
				break;
			}
		}
	}
}
    164a:	bd70      	pop	{r4, r5, r6, pc}
    164c:	20000584 	andcs	r0, r0, r4, lsl #11

00001650 <qfree>:
	// volatile
#endif
	aword *chunk, *cc;

	cc = (aword*)(mpools + MA_NP);
	for (chunk = mpools [MA_NP]; chunk != NULL; chunk = m_nextp (chunk)) {
    1650:	4a1d      	ldr	r2, [pc, #116]	; (16c8 <qfree+0x78>)
static void qfree (aword *ch) {
    1652:	b530      	push	{r4, r5, lr}
    1654:	4614      	mov	r4, r2
	for (chunk = mpools [MA_NP]; chunk != NULL; chunk = m_nextp (chunk)) {
    1656:	6813      	ldr	r3, [r2, #0]
    1658:	b93b      	cbnz	r3, 166a <qfree+0x1a>
		}
	}

	/* Insert */
	cc = (aword*)(mpools + MA_NP);
	for (chunk = mpools [MA_NP]; chunk != NULL; cc = chunk,
    165a:	6823      	ldr	r3, [r4, #0]
	cc = (aword*)(mpools + MA_NP);
    165c:	4a1a      	ldr	r2, [pc, #104]	; (16c8 <qfree+0x78>)
	for (chunk = mpools [MA_NP]; chunk != NULL; cc = chunk,
    165e:	bb53      	cbnz	r3, 16b6 <qfree+0x66>
		chunk = m_nextp (chunk))
			if (m_size (chunk) >= m_size (ch))
				break;

	m_setnextp (ch, chunk);
    1660:	6003      	str	r3, [r0, #0]
	m_setnextp (cc, ch);

#if	MALLOC_SAFE
	m_magic (ch) = MALLOC_MAGIC;
    1662:	4b1a      	ldr	r3, [pc, #104]	; (16cc <qfree+0x7c>)
	m_setnextp (cc, ch);
    1664:	6010      	str	r0, [r2, #0]
	m_magic (ch) = MALLOC_MAGIC;
    1666:	6043      	str	r3, [r0, #4]
#endif

#undef	MA_NP
}
    1668:	bd30      	pop	{r4, r5, pc}
		if (chunk + m_size (chunk) + m_hdrlen == ch) {
    166a:	e953 1501 	ldrd	r1, r5, [r3, #-4]
    166e:	3101      	adds	r1, #1
    1670:	eb03 0181 	add.w	r1, r3, r1, lsl #2
    1674:	4288      	cmp	r0, r1
    1676:	d10b      	bne.n	1690 <qfree+0x40>
			m_setnextp (cc, m_nextp (chunk));
    1678:	6015      	str	r5, [r2, #0]
			m_size (chunk) += m_hdrlen + m_size (ch);
    167a:	f850 0c04 	ldr.w	r0, [r0, #-4]
    167e:	f853 1c04 	ldr.w	r1, [r3, #-4]
    1682:	4401      	add	r1, r0
    1684:	4618      	mov	r0, r3
    1686:	3101      	adds	r1, #1
    1688:	f843 1c04 	str.w	r1, [r3, #-4]
	for (chunk = mpools [MA_NP]; chunk != NULL; chunk = m_nextp (chunk)) {
    168c:	681b      	ldr	r3, [r3, #0]
    168e:	e7e3      	b.n	1658 <qfree+0x8>
		} else if (ch + m_size (ch) + m_hdrlen == chunk) {
    1690:	f850 1c04 	ldr.w	r1, [r0, #-4]
    1694:	3101      	adds	r1, #1
    1696:	eb00 0181 	add.w	r1, r0, r1, lsl #2
    169a:	428b      	cmp	r3, r1
			m_setnextp (cc, m_nextp (chunk));
    169c:	bf03      	ittte	eq
    169e:	6015      	streq	r5, [r2, #0]
			m_size (ch) += m_hdrlen + m_size (chunk);
    16a0:	f850 1c04 	ldreq.w	r1, [r0, #-4]
    16a4:	f853 5c04 	ldreq.w	r5, [r3, #-4]
    16a8:	461a      	movne	r2, r3
    16aa:	bf02      	ittt	eq
    16ac:	1949      	addeq	r1, r1, r5
    16ae:	3101      	addeq	r1, #1
    16b0:	f840 1c04 	streq.w	r1, [r0, #-4]
    16b4:	e7ea      	b.n	168c <qfree+0x3c>
			if (m_size (chunk) >= m_size (ch))
    16b6:	f853 4c04 	ldr.w	r4, [r3, #-4]
    16ba:	f850 1c04 	ldr.w	r1, [r0, #-4]
    16be:	428c      	cmp	r4, r1
    16c0:	d2ce      	bcs.n	1660 <qfree+0x10>
		chunk = m_nextp (chunk))
    16c2:	461a      	mov	r2, r3
    16c4:	681b      	ldr	r3, [r3, #0]
    16c6:	e7ca      	b.n	165e <qfree+0xe>
    16c8:	20000598 	mulcs	r0, r8, r5
    16cc:	deafdeaf 	cdple	14, 10, cr13, cr15, cr15, {5}

000016d0 <dgout>:
    return((HWREG(ui32Base + UART_O_FR) & UART_FR_BUSY) ?
    16d0:	4a03      	ldr	r2, [pc, #12]	; (16e0 <dgout+0x10>)
    16d2:	6813      	ldr	r3, [r2, #0]

#if	dbg_level != 0 || DIAG_MESSAGES

static void dgout (word c) {

	diag_wait (a);
    16d4:	071b      	lsls	r3, r3, #28
    16d6:	d4fc      	bmi.n	16d2 <dgout+0x2>
	diag_wchar (c, a);
    16d8:	4b02      	ldr	r3, [pc, #8]	; (16e4 <dgout+0x14>)
    16da:	b2c0      	uxtb	r0, r0
    16dc:	6018      	str	r0, [r3, #0]
}
    16de:	4770      	bx	lr
    16e0:	40001018 	andmi	r1, r0, r8, lsl r0
    16e4:	40001000 	andmi	r1, r0, r0

000016e8 <__pi_badstate>:
	syserror (ESTATE, "state");
    16e8:	2007      	movs	r0, #7
void __pi_badstate (void) {
    16ea:	b508      	push	{r3, lr}
	syserror (ESTATE, "state");
    16ec:	4901      	ldr	r1, [pc, #4]	; (16f4 <__pi_badstate+0xc>)
    16ee:	f7ff fa5f 	bl	bb0 <__pi_syserror>
    16f2:	bf00      	nop
    16f4:	00004f4c 	andeq	r4, r0, ip, asr #30

000016f8 <utimer_add>:
	for (i = 0; i < MAX_UTIMERS; i++)
    16f8:	4a08      	ldr	r2, [pc, #32]	; (171c <utimer_add+0x24>)
void utimer_add (address ut) {
    16fa:	4603      	mov	r3, r0
    16fc:	4611      	mov	r1, r2
	for (i = 0; i < MAX_UTIMERS; i++)
    16fe:	2000      	movs	r0, #0
void utimer_add (address ut) {
    1700:	b510      	push	{r4, lr}
		if (__pi_utims [i] == NULL)
    1702:	f852 4b04 	ldr.w	r4, [r2], #4
    1706:	b12c      	cbz	r4, 1714 <utimer_add+0x1c>
	for (i = 0; i < MAX_UTIMERS; i++)
    1708:	3001      	adds	r0, #1
    170a:	2804      	cmp	r0, #4
    170c:	d1f9      	bne.n	1702 <utimer_add+0xa>
		syserror (ERESOURCE, "ut a");
    170e:	4904      	ldr	r1, [pc, #16]	; (1720 <utimer_add+0x28>)
    1710:	f7ff fa4e 	bl	bb0 <__pi_syserror>
	__pi_utims [i] = ut;
    1714:	f841 3020 	str.w	r3, [r1, r0, lsl #2]
}
    1718:	bd10      	pop	{r4, pc}
    171a:	bf00      	nop
    171c:	200006c0 	andcs	r0, r0, r0, asr #13
    1720:	00004f52 	andeq	r4, r0, r2, asr pc

00001724 <__pi_utimer_set>:
	*t = v;
    1724:	8001      	strh	r1, [r0, #0]
	TCI_RUN_AUXILIARY_TIMER;
    1726:	f7ff ba8d 	b.w	c44 <tci_run_auxiliary_timer>
	...

0000172c <update_n_wake>:
void update_n_wake (word min, Boolean force) {
    172c:	b5f8      	push	{r3, r4, r5, r6, r7, lr}
    172e:	4604      	mov	r4, r0
	if (TCI_UPDATE_DELAY_TICKS (force))
    1730:	4608      	mov	r0, r1
    1732:	f7ff fb25 	bl	d80 <tci_update_delay_ticks>
    1736:	2800      	cmp	r0, #0
    1738:	d154      	bne.n	17e4 <update_n_wake+0xb8>
	if (twakecnd (__pi_old, znew, __pi_mintk)) {
    173a:	4b2b      	ldr	r3, [pc, #172]	; (17e8 <update_n_wake+0xbc>)
    173c:	4d2b      	ldr	r5, [pc, #172]	; (17ec <update_n_wake+0xc0>)
    173e:	8819      	ldrh	r1, [r3, #0]
    1740:	882a      	ldrh	r2, [r5, #0]
    1742:	b289      	uxth	r1, r1
    1744:	428a      	cmp	r2, r1
    1746:	492a      	ldr	r1, [pc, #168]	; (17f0 <update_n_wake+0xc4>)
    1748:	d803      	bhi.n	1752 <update_n_wake+0x26>
    174a:	8808      	ldrh	r0, [r1, #0]
    174c:	b280      	uxth	r0, r0
    174e:	4282      	cmp	r2, r0
    1750:	d20d      	bcs.n	176e <update_n_wake+0x42>
    1752:	881e      	ldrh	r6, [r3, #0]
    1754:	8808      	ldrh	r0, [r1, #0]
    1756:	b2b6      	uxth	r6, r6
    1758:	b280      	uxth	r0, r0
    175a:	4286      	cmp	r6, r0
    175c:	d236      	bcs.n	17cc <update_n_wake+0xa0>
    175e:	8818      	ldrh	r0, [r3, #0]
    1760:	b280      	uxth	r0, r0
    1762:	4282      	cmp	r2, r0
    1764:	d903      	bls.n	176e <update_n_wake+0x42>
    1766:	8808      	ldrh	r0, [r1, #0]
    1768:	b280      	uxth	r0, r0
    176a:	4282      	cmp	r2, r0
    176c:	d32e      	bcc.n	17cc <update_n_wake+0xa0>
		for_all_tasks (i) {
    176e:	4a21      	ldr	r2, [pc, #132]	; (17f4 <update_n_wake+0xc8>)
    1770:	6810      	ldr	r0, [r2, #0]
    1772:	b918      	cbnz	r0, 177c <update_n_wake+0x50>
	__pi_mintk = znew + min;
    1774:	8818      	ldrh	r0, [r3, #0]
    1776:	4404      	add	r4, r0
    1778:	802c      	strh	r4, [r5, #0]
    177a:	e02c      	b.n	17d6 <update_n_wake+0xaa>
			if (!twaiting (i))
    177c:	8806      	ldrh	r6, [r0, #0]
    177e:	0732      	lsls	r2, r6, #28
    1780:	d51b      	bpl.n	17ba <update_n_wake+0x8e>
			if (twakecnd (__pi_old, znew, i->Timer)) {
    1782:	881f      	ldrh	r7, [r3, #0]
    1784:	8842      	ldrh	r2, [r0, #2]
    1786:	b2bf      	uxth	r7, r7
    1788:	42ba      	cmp	r2, r7
    178a:	d803      	bhi.n	1794 <update_n_wake+0x68>
    178c:	880f      	ldrh	r7, [r1, #0]
    178e:	b2bf      	uxth	r7, r7
    1790:	42ba      	cmp	r2, r7
    1792:	d20f      	bcs.n	17b4 <update_n_wake+0x88>
    1794:	f8b3 c000 	ldrh.w	ip, [r3]
    1798:	880f      	ldrh	r7, [r1, #0]
    179a:	fa1f fc8c 	uxth.w	ip, ip
    179e:	b2bf      	uxth	r7, r7
    17a0:	45bc      	cmp	ip, r7
    17a2:	d20c      	bcs.n	17be <update_n_wake+0x92>
    17a4:	881f      	ldrh	r7, [r3, #0]
    17a6:	b2bf      	uxth	r7, r7
    17a8:	42ba      	cmp	r2, r7
    17aa:	d903      	bls.n	17b4 <update_n_wake+0x88>
    17ac:	880f      	ldrh	r7, [r1, #0]
    17ae:	b2bf      	uxth	r7, r7
    17b0:	42ba      	cmp	r2, r7
    17b2:	d304      	bcc.n	17be <update_n_wake+0x92>
				wakeuptm (i);
    17b4:	f026 060f 	bic.w	r6, r6, #15
    17b8:	8006      	strh	r6, [r0, #0]
		for_all_tasks (i) {
    17ba:	6ac0      	ldr	r0, [r0, #44]	; 0x2c
    17bc:	e7d9      	b.n	1772 <update_n_wake+0x46>
				d = i->Timer - znew;
    17be:	881e      	ldrh	r6, [r3, #0]
    17c0:	1b92      	subs	r2, r2, r6
    17c2:	b292      	uxth	r2, r2
    17c4:	4294      	cmp	r4, r2
    17c6:	bf28      	it	cs
    17c8:	4614      	movcs	r4, r2
    17ca:	e7f6      	b.n	17ba <update_n_wake+0x8e>
		if ((word)(__pi_mintk - znew) < min) 
    17cc:	8818      	ldrh	r0, [r3, #0]
    17ce:	1a12      	subs	r2, r2, r0
    17d0:	b292      	uxth	r2, r2
    17d2:	4294      	cmp	r4, r2
    17d4:	d9ce      	bls.n	1774 <update_n_wake+0x48>
	__pi_old = znew;
    17d6:	881b      	ldrh	r3, [r3, #0]
    17d8:	b29b      	uxth	r3, r3
    17da:	800b      	strh	r3, [r1, #0]
}
    17dc:	e8bd 40f8 	ldmia.w	sp!, {r3, r4, r5, r6, r7, lr}
	TCI_RUN_DELAY_TIMER;
    17e0:	f7ff ba10 	b.w	c04 <tci_run_delay_timer>
}
    17e4:	bdf8      	pop	{r3, r4, r5, r6, r7, pc}
    17e6:	bf00      	nop
    17e8:	200006bc 			; <UNDEFINED> instruction: 0x200006bc
    17ec:	200006b0 			; <UNDEFINED> instruction: 0x200006b0
    17f0:	200006b2 			; <UNDEFINED> instruction: 0x200006b2
    17f4:	20000584 	andcs	r0, r0, r4, lsl #11

000017f8 <proceed>:
void proceed (word state) {
    17f8:	b508      	push	{r3, lr}
	prcdstate (__pi_curr, state);
    17fa:	4b03      	ldr	r3, [pc, #12]	; (1808 <proceed+0x10>)
    17fc:	0100      	lsls	r0, r0, #4
    17fe:	681b      	ldr	r3, [r3, #0]
    1800:	8018      	strh	r0, [r3, #0]
	release;
    1802:	f7ff fd93 	bl	132c <__pi_release>
    1806:	bf00      	nop
    1808:	200006d0 	ldrdcs	r0, [r0], -r0	; <UNPREDICTABLE>

0000180c <__pi_wait>:
void __pi_wait (aword event, word state) {
    180c:	b510      	push	{r4, lr}
	sint j = nevents (__pi_curr);
    180e:	4b0a      	ldr	r3, [pc, #40]	; (1838 <__pi_wait+0x2c>)
    1810:	681c      	ldr	r4, [r3, #0]
    1812:	8823      	ldrh	r3, [r4, #0]
	if (j >= MAX_EVENTS_PER_TASK)
    1814:	f013 0f04 	tst.w	r3, #4
    1818:	f003 0207 	and.w	r2, r3, #7
    181c:	d003      	beq.n	1826 <__pi_wait+0x1a>
		syserror (ENEVENTS, "sw");
    181e:	2005      	movs	r0, #5
    1820:	4906      	ldr	r1, [pc, #24]	; (183c <__pi_wait+0x30>)
    1822:	f7ff f9c5 	bl	bb0 <__pi_syserror>
	setestate (__pi_curr->Events [j], state, event);
    1826:	eb04 02c2 	add.w	r2, r4, r2, lsl #3
    182a:	0109      	lsls	r1, r1, #4
	incwait (__pi_curr);
    182c:	3301      	adds	r3, #1
	setestate (__pi_curr->Events [j], state, event);
    182e:	8191      	strh	r1, [r2, #12]
    1830:	6110      	str	r0, [r2, #16]
	incwait (__pi_curr);
    1832:	8023      	strh	r3, [r4, #0]
}
    1834:	bd10      	pop	{r4, pc}
    1836:	bf00      	nop
    1838:	200006d0 	ldrdcs	r0, [r0], -r0	; <UNPREDICTABLE>
    183c:	00004f57 	andeq	r4, r0, r7, asr pc

00001840 <__pi_trigger>:
void __pi_trigger (aword event) {
    1840:	b530      	push	{r4, r5, lr}
	for_all_tasks (i) {
    1842:	4b0b      	ldr	r3, [pc, #44]	; (1870 <__pi_trigger+0x30>)
    1844:	681a      	ldr	r2, [r3, #0]
    1846:	b192      	cbz	r2, 186e <__pi_trigger+0x2e>
		for (j = 0; j < nevents (i); j++) {
    1848:	4614      	mov	r4, r2
    184a:	2300      	movs	r3, #0
    184c:	f834 1b10 	ldrh.w	r1, [r4], #16
    1850:	f001 0107 	and.w	r1, r1, #7
    1854:	4299      	cmp	r1, r3
    1856:	dd08      	ble.n	186a <__pi_trigger+0x2a>
			if (i->Events [j] . Event == event) {
    1858:	f854 5033 	ldr.w	r5, [r4, r3, lsl #3]
    185c:	3301      	adds	r3, #1
    185e:	4285      	cmp	r5, r0
    1860:	d1f8      	bne.n	1854 <__pi_trigger+0x14>
				wakeupev (i, j);
    1862:	eb02 03c3 	add.w	r3, r2, r3, lsl #3
    1866:	889b      	ldrh	r3, [r3, #4]
    1868:	8013      	strh	r3, [r2, #0]
	for_all_tasks (i) {
    186a:	6ad2      	ldr	r2, [r2, #44]	; 0x2c
    186c:	e7eb      	b.n	1846 <__pi_trigger+0x6>
}
    186e:	bd30      	pop	{r4, r5, pc}
    1870:	20000584 	andcs	r0, r0, r4, lsl #11

00001874 <__pi_join>:
aword __pi_join (aword pid, word st) {
    1874:	b510      	push	{r4, lr}
    1876:	4604      	mov	r4, r0
	for_all_tasks (i) {
    1878:	4b06      	ldr	r3, [pc, #24]	; (1894 <__pi_join+0x20>)
    187a:	681b      	ldr	r3, [r3, #0]
    187c:	b90b      	cbnz	r3, 1882 <__pi_join+0xe>
	return 0;
    187e:	461c      	mov	r4, r3
    1880:	e004      	b.n	188c <__pi_join+0x18>
		if ((aword)i == pid) {
    1882:	42a3      	cmp	r3, r4
    1884:	d104      	bne.n	1890 <__pi_join+0x1c>
			__pi_wait (pid, st);
    1886:	4620      	mov	r0, r4
    1888:	f7ff ffc0 	bl	180c <__pi_wait>
}
    188c:	4620      	mov	r0, r4
    188e:	bd10      	pop	{r4, pc}
	for_all_tasks (i) {
    1890:	6adb      	ldr	r3, [r3, #44]	; 0x2c
    1892:	e7f3      	b.n	187c <__pi_join+0x8>
    1894:	20000584 	andcs	r0, r0, r4, lsl #11

00001898 <delay>:
void delay (word d, word state) {
    1898:	b538      	push	{r3, r4, r5, lr}
    189a:	4604      	mov	r4, r0
	settstate (__pi_curr, state);
    189c:	4d0a      	ldr	r5, [pc, #40]	; (18c8 <delay+0x30>)
    189e:	682a      	ldr	r2, [r5, #0]
    18a0:	8813      	ldrh	r3, [r2, #0]
    18a2:	f003 0307 	and.w	r3, r3, #7
    18a6:	ea43 1301 	orr.w	r3, r3, r1, lsl #4
    18aa:	8013      	strh	r3, [r2, #0]
	update_n_wake (d, YES);
    18ac:	2101      	movs	r1, #1
    18ae:	f7ff ff3d 	bl	172c <update_n_wake>
	__pi_curr->Timer = __pi_old + d;
    18b2:	4b06      	ldr	r3, [pc, #24]	; (18cc <delay+0x34>)
    18b4:	8818      	ldrh	r0, [r3, #0]
    18b6:	682b      	ldr	r3, [r5, #0]
    18b8:	4404      	add	r4, r0
    18ba:	805c      	strh	r4, [r3, #2]
	inctimer (__pi_curr);
    18bc:	682a      	ldr	r2, [r5, #0]
    18be:	8813      	ldrh	r3, [r2, #0]
    18c0:	f043 0308 	orr.w	r3, r3, #8
    18c4:	8013      	strh	r3, [r2, #0]
}
    18c6:	bd38      	pop	{r3, r4, r5, pc}
    18c8:	200006d0 	ldrdcs	r0, [r0], -r0	; <UNPREDICTABLE>
    18cc:	200006b2 			; <UNDEFINED> instruction: 0x200006b2

000018d0 <running>:
	if (fun == NULL)
    18d0:	4603      	mov	r3, r0
    18d2:	b910      	cbnz	r0, 18da <running+0xa>
		return (int) __pi_curr;
    18d4:	4b05      	ldr	r3, [pc, #20]	; (18ec <running+0x1c>)
    18d6:	6818      	ldr	r0, [r3, #0]
    18d8:	4770      	bx	lr
	for_all_tasks (i)
    18da:	4a05      	ldr	r2, [pc, #20]	; (18f0 <running+0x20>)
    18dc:	6810      	ldr	r0, [r2, #0]
    18de:	b900      	cbnz	r0, 18e2 <running+0x12>
}
    18e0:	4770      	bx	lr
		if (i->code == fun)
    18e2:	6842      	ldr	r2, [r0, #4]
    18e4:	429a      	cmp	r2, r3
    18e6:	d0fb      	beq.n	18e0 <running+0x10>
	for_all_tasks (i)
    18e8:	6ac0      	ldr	r0, [r0, #44]	; 0x2c
    18ea:	e7f8      	b.n	18de <running+0xe>
    18ec:	200006d0 	ldrdcs	r0, [r0], -r0	; <UNPREDICTABLE>
    18f0:	20000584 	andcs	r0, r0, r4, lsl #11

000018f4 <__pi_strlen>:
int __pi_strlen (const char *s) {
    18f4:	4603      	mov	r3, r0
	for (i = 0; *(s+i) != '\0'; i++);
    18f6:	2000      	movs	r0, #0
    18f8:	5c1a      	ldrb	r2, [r3, r0]
    18fa:	b902      	cbnz	r2, 18fe <__pi_strlen+0xa>
}
    18fc:	4770      	bx	lr
	for (i = 0; *(s+i) != '\0'; i++);
    18fe:	3001      	adds	r0, #1
    1900:	e7fa      	b.n	18f8 <__pi_strlen+0x4>

00001902 <__pi_strcpy>:
	while ((Boolean)(*d++ = *s++));
    1902:	3801      	subs	r0, #1
    1904:	f811 3b01 	ldrb.w	r3, [r1], #1
    1908:	f800 3f01 	strb.w	r3, [r0, #1]!
    190c:	2b00      	cmp	r3, #0
    190e:	d1f9      	bne.n	1904 <__pi_strcpy+0x2>
}
    1910:	4770      	bx	lr

00001912 <__pi_strncpy>:
	while (n-- && (*s != '\0'))
    1912:	3901      	subs	r1, #1
    1914:	4402      	add	r2, r0
    1916:	4290      	cmp	r0, r2
    1918:	d102      	bne.n	1920 <__pi_strncpy+0xe>
	*d = '\0';
    191a:	2300      	movs	r3, #0
    191c:	7003      	strb	r3, [r0, #0]
}
    191e:	4770      	bx	lr
	while (n-- && (*s != '\0'))
    1920:	f811 3f01 	ldrb.w	r3, [r1, #1]!
    1924:	2b00      	cmp	r3, #0
    1926:	d0f8      	beq.n	191a <__pi_strncpy+0x8>
		*d++ = *s++;
    1928:	f800 3b01 	strb.w	r3, [r0], #1
    192c:	e7f3      	b.n	1916 <__pi_strncpy+0x4>

0000192e <__pi_memcpy>:
	while (n--)
    192e:	3801      	subs	r0, #1
    1930:	440a      	add	r2, r1
    1932:	4291      	cmp	r1, r2
    1934:	d100      	bne.n	1938 <__pi_memcpy+0xa>
}
    1936:	4770      	bx	lr
		*dest++ = *src++;
    1938:	f811 3b01 	ldrb.w	r3, [r1], #1
    193c:	f800 3f01 	strb.w	r3, [r0, #1]!
    1940:	e7f7      	b.n	1932 <__pi_memcpy+0x4>

00001942 <__pi_memset>:
	while (n--)
    1942:	4402      	add	r2, r0
    1944:	4290      	cmp	r0, r2
    1946:	d100      	bne.n	194a <__pi_memset+0x8>
}
    1948:	4770      	bx	lr
		*dest++ = c;
    194a:	f800 1b01 	strb.w	r1, [r0], #1
    194e:	e7f9      	b.n	1944 <__pi_memset+0x2>

00001950 <adddevfunc>:
void adddevfunc (devreqfun_t rf, int loc) {
    1950:	b508      	push	{r3, lr}
	if (loc < 0 || loc >= MAX_DEVICES)
    1952:	b119      	cbz	r1, 195c <adddevfunc+0xc>
		syserror (EREQPAR, "addv");
    1954:	2003      	movs	r0, #3
    1956:	4905      	ldr	r1, [pc, #20]	; (196c <adddevfunc+0x1c>)
		syserror (ERESOURCE, "addv");
    1958:	f7ff f92a 	bl	bb0 <__pi_syserror>
	if (ioreq [loc] != NULL)
    195c:	4b04      	ldr	r3, [pc, #16]	; (1970 <adddevfunc+0x20>)
    195e:	681a      	ldr	r2, [r3, #0]
    1960:	b112      	cbz	r2, 1968 <adddevfunc+0x18>
		syserror (ERESOURCE, "addv");
    1962:	2004      	movs	r0, #4
    1964:	4901      	ldr	r1, [pc, #4]	; (196c <adddevfunc+0x1c>)
    1966:	e7f7      	b.n	1958 <adddevfunc+0x8>
	ioreq [loc] = rf;
    1968:	6018      	str	r0, [r3, #0]
}
    196a:	bd08      	pop	{r3, pc}
    196c:	00004f5a 	andeq	r4, r0, sl, asr pc
    1970:	20000588 	andcs	r0, r0, r8, lsl #11

00001974 <io>:
sint io (word retry, word dev, word operation, char *buf, word len) {
    1974:	e92d 43f8 	stmdb	sp!, {r3, r4, r5, r6, r7, r8, r9, lr}
    1978:	4604      	mov	r4, r0
    197a:	4616      	mov	r6, r2
    197c:	461d      	mov	r5, r3
    197e:	f8bd 8020 	ldrh.w	r8, [sp, #32]
	if (dev >= MAX_DEVICES || ioreq [dev] == NULL)
    1982:	b921      	cbnz	r1, 198e <io+0x1a>
    1984:	f8df 9084 	ldr.w	r9, [pc, #132]	; 1a0c <io+0x98>
    1988:	f8d9 3000 	ldr.w	r3, [r9]
    198c:	b91b      	cbnz	r3, 1996 <io+0x22>
		syserror (ENODEVICE, "io");
    198e:	2001      	movs	r0, #1
    1990:	491d      	ldr	r1, [pc, #116]	; (1a08 <io+0x94>)
    1992:	f7ff f90d 	bl	bb0 <__pi_syserror>
	if (len == 0)
    1996:	f1b8 0f00 	cmp.w	r8, #0
    199a:	d028      	beq.n	19ee <io+0x7a>
	ret = (ioreq [dev]) (operation, buf, len);
    199c:	4642      	mov	r2, r8
    199e:	4629      	mov	r1, r5
    19a0:	4630      	mov	r0, r6
    19a2:	4798      	blx	r3
	if (ret >= 0)
    19a4:	2800      	cmp	r0, #0
    19a6:	da23      	bge.n	19f0 <io+0x7c>
	if (ret == -1) {
    19a8:	1c41      	adds	r1, r0, #1
    19aa:	f64f 73ff 	movw	r3, #65535	; 0xffff
    19ae:	d108      	bne.n	19c2 <io+0x4e>
		if (retry == WNONE)
    19b0:	429c      	cmp	r4, r3
    19b2:	d01c      	beq.n	19ee <io+0x7a>
		iowait (dev, operation, retry);
    19b4:	4621      	mov	r1, r4
    19b6:	f5a6 7081 	sub.w	r0, r6, #258	; 0x102
    19ba:	f7ff ff27 	bl	180c <__pi_wait>
			release;
    19be:	f7ff fcb5 	bl	132c <__pi_release>
	if (ret == -2) {
    19c2:	1c82      	adds	r2, r0, #2
    19c4:	d116      	bne.n	19f4 <io+0x80>
		if (retry != WNONE) {
    19c6:	429c      	cmp	r4, r3
    19c8:	f8d9 9000 	ldr.w	r9, [r9]
    19cc:	d00a      	beq.n	19e4 <io+0x70>
			iowait (dev, operation, retry);
    19ce:	4621      	mov	r1, r4
    19d0:	f5a6 7081 	sub.w	r0, r6, #258	; 0x102
    19d4:	f7ff ff1a 	bl	180c <__pi_wait>
			(ioreq [dev]) (NONE, buf, len);
    19d8:	4642      	mov	r2, r8
    19da:	4629      	mov	r1, r5
    19dc:	f04f 30ff 	mov.w	r0, #4294967295	; 0xffffffff
    19e0:	47c8      	blx	r9
    19e2:	e7ec      	b.n	19be <io+0x4a>
		(ioreq [dev]) (NONE, buf, len);
    19e4:	4642      	mov	r2, r8
    19e6:	4629      	mov	r1, r5
    19e8:	f04f 30ff 	mov.w	r0, #4294967295	; 0xffffffff
    19ec:	47c8      	blx	r9
		return 0;
    19ee:	2000      	movs	r0, #0
}
    19f0:	e8bd 83f8 	ldmia.w	sp!, {r3, r4, r5, r6, r7, r8, r9, pc}
	if (retry != WNONE) {
    19f4:	429c      	cmp	r4, r3
    19f6:	d0fa      	beq.n	19ee <io+0x7a>
		delay (-ret - 2, retry);
    19f8:	f5c0 407f 	rsb	r0, r0, #65280	; 0xff00
    19fc:	30fe      	adds	r0, #254	; 0xfe
    19fe:	4621      	mov	r1, r4
    1a00:	b280      	uxth	r0, r0
    1a02:	f7ff ff49 	bl	1898 <delay>
		release;
    1a06:	e7da      	b.n	19be <io+0x4a>
    1a08:	00004f5f 	andeq	r4, r0, pc, asr pc
    1a0c:	20000588 	andcs	r0, r0, r8, lsl #11

00001a10 <__pi_malloc_init>:
	if ((mlen = (aword)MALLOC_LENGTH) < 256)
    1a10:	4a0d      	ldr	r2, [pc, #52]	; (1a48 <__pi_malloc_init+0x38>)
void __pi_malloc_init () {
    1a12:	b508      	push	{r3, lr}
	if ((mlen = (aword)MALLOC_LENGTH) < 256)
    1a14:	f1c2 5300 	rsb	r3, r2, #536870912	; 0x20000000
    1a18:	f503 4398 	add.w	r3, r3, #19456	; 0x4c00
    1a1c:	089b      	lsrs	r3, r3, #2
    1a1e:	1e59      	subs	r1, r3, #1
    1a20:	29ff      	cmp	r1, #255	; 0xff
    1a22:	d803      	bhi.n	1a2c <__pi_malloc_init+0x1c>
		syserror (ERESOURCE, "mal1");
    1a24:	2004      	movs	r0, #4
    1a26:	4909      	ldr	r1, [pc, #36]	; (1a4c <__pi_malloc_init+0x3c>)
    1a28:	f7ff f8c2 	bl	bb0 <__pi_syserror>
	mpools [0] = ((aword*)MALLOC_START) + m_hdrlen;
    1a2c:	4908      	ldr	r1, [pc, #32]	; (1a50 <__pi_malloc_init+0x40>)
    1a2e:	1d10      	adds	r0, r2, #4
    1a30:	6008      	str	r0, [r1, #0]
	m_magic (mpools [0]) = MALLOC_MAGIC;
    1a32:	2000      	movs	r0, #0
    1a34:	4907      	ldr	r1, [pc, #28]	; (1a54 <__pi_malloc_init+0x44>)
	m_size (mpools [0]) = mlen - m_hdrlen;
    1a36:	3b02      	subs	r3, #2
    1a38:	6013      	str	r3, [r2, #0]
	m_magic (mpools [0]) = MALLOC_MAGIC;
    1a3a:	e9c2 0101 	strd	r0, r1, [r2, #4]
	mnfree [0] = mcfree [0] = m_size (mpools [0]);
    1a3e:	4a06      	ldr	r2, [pc, #24]	; (1a58 <__pi_malloc_init+0x48>)
    1a40:	6013      	str	r3, [r2, #0]
    1a42:	4a06      	ldr	r2, [pc, #24]	; (1a5c <__pi_malloc_init+0x4c>)
    1a44:	6013      	str	r3, [r2, #0]
}
    1a46:	bd08      	pop	{r3, pc}
    1a48:	200006d4 	ldrdcs	r0, [r0], -r4
    1a4c:	00004f62 	andeq	r4, r0, r2, ror #30
    1a50:	20000598 	mulcs	r0, r8, r5
    1a54:	deafdeaf 	cdple	14, 10, cr13, cr15, cr15, {5}
    1a58:	2000058c 	andcs	r0, r0, ip, lsl #11
    1a5c:	20000594 	mulcs	r0, r4, r5

00001a60 <__pi_free>:
void __pi_free (aword *ch) {
    1a60:	b508      	push	{r3, lr}
	if (ch == NULL)
    1a62:	b1c8      	cbz	r0, 1a98 <__pi_free+0x38>
	if ((m_size (ch) & MALLOC_UMASK) == 0)
    1a64:	f850 3c04 	ldr.w	r3, [r0, #-4]
    1a68:	2b00      	cmp	r3, #0
    1a6a:	db03      	blt.n	1a74 <__pi_free+0x14>
		syserror (EMALLOC, "malg");
    1a6c:	2006      	movs	r0, #6
    1a6e:	490b      	ldr	r1, [pc, #44]	; (1a9c <__pi_free+0x3c>)
    1a70:	f7ff f89e 	bl	bb0 <__pi_syserror>
	mcfree [MA_NP] += m_size (ch);
    1a74:	490a      	ldr	r1, [pc, #40]	; (1aa0 <__pi_free+0x40>)
		m_size (ch) ^= MALLOC_UMASK;
    1a76:	f103 4300 	add.w	r3, r3, #2147483648	; 0x80000000
	mcfree [MA_NP] += m_size (ch);
    1a7a:	680a      	ldr	r2, [r1, #0]
		m_size (ch) ^= MALLOC_UMASK;
    1a7c:	f840 3c04 	str.w	r3, [r0, #-4]
	mcfree [MA_NP] += m_size (ch);
    1a80:	4413      	add	r3, r2
    1a82:	600b      	str	r3, [r1, #0]
	QFREE;
    1a84:	f7ff fde4 	bl	1650 <qfree>
	if (mevent [MA_NP] . nwait) {
    1a88:	4806      	ldr	r0, [pc, #24]	; (1aa4 <__pi_free+0x44>)
    1a8a:	7803      	ldrb	r3, [r0, #0]
    1a8c:	b123      	cbz	r3, 1a98 <__pi_free+0x38>
		trigger ((aword)(&(mevent [MA_NP])));
    1a8e:	f7ff fed7 	bl	1840 <__pi_trigger>
		mevent [MA_NP] . nwait --;
    1a92:	7803      	ldrb	r3, [r0, #0]
    1a94:	3b01      	subs	r3, #1
    1a96:	7003      	strb	r3, [r0, #0]
}
    1a98:	bd08      	pop	{r3, pc}
    1a9a:	bf00      	nop
    1a9c:	00004f67 	andeq	r4, r0, r7, ror #30
    1aa0:	2000058c 	andcs	r0, r0, ip, lsl #11
    1aa4:	20000590 	mulcs	r0, r0, r5

00001aa8 <kill>:
void kill (aword pid) {
    1aa8:	b510      	push	{r4, lr}
	if (pid == 0)
    1aaa:	b908      	cbnz	r0, 1ab0 <kill+0x8>
		pid = (aword) __pi_curr;
    1aac:	4b0f      	ldr	r3, [pc, #60]	; (1aec <kill+0x44>)
    1aae:	6818      	ldr	r0, [r3, #0]
	j = NULL;
    1ab0:	2200      	movs	r2, #0
	for_all_tasks (i) {
    1ab2:	4b0f      	ldr	r3, [pc, #60]	; (1af0 <kill+0x48>)
    1ab4:	681c      	ldr	r4, [r3, #0]
    1ab6:	b91c      	cbnz	r4, 1ac0 <kill+0x18>
	syserror (EREQPAR, "kpi");
    1ab8:	2003      	movs	r0, #3
    1aba:	490e      	ldr	r1, [pc, #56]	; (1af4 <kill+0x4c>)
    1abc:	f7ff f878 	bl	bb0 <__pi_syserror>
		if ((aword)i == pid) {
    1ac0:	4284      	cmp	r4, r0
    1ac2:	6ae1      	ldr	r1, [r4, #44]	; 0x2c
    1ac4:	d10e      	bne.n	1ae4 <kill+0x3c>
			if (j == NULL)
    1ac6:	b95a      	cbnz	r2, 1ae0 <kill+0x38>
				__PCB = i->Next;
    1ac8:	6019      	str	r1, [r3, #0]
			killev (i);
    1aca:	4620      	mov	r0, r4
    1acc:	f7ff fda2 	bl	1614 <killev>
			ufree (i);
    1ad0:	f7ff ffc6 	bl	1a60 <__pi_free>
			if (i == __pi_curr)
    1ad4:	4b05      	ldr	r3, [pc, #20]	; (1aec <kill+0x44>)
    1ad6:	681b      	ldr	r3, [r3, #0]
    1ad8:	42a3      	cmp	r3, r4
    1ada:	d106      	bne.n	1aea <kill+0x42>
				release;
    1adc:	f7ff fc26 	bl	132c <__pi_release>
				j->Next = i->Next;
    1ae0:	62d1      	str	r1, [r2, #44]	; 0x2c
    1ae2:	e7f2      	b.n	1aca <kill+0x22>
    1ae4:	4622      	mov	r2, r4
    1ae6:	460c      	mov	r4, r1
    1ae8:	e7e5      	b.n	1ab6 <kill+0xe>
}
    1aea:	bd10      	pop	{r4, pc}
    1aec:	200006d0 	ldrdcs	r0, [r0], -r0	; <UNPREDICTABLE>
    1af0:	20000584 	andcs	r0, r0, r4, lsl #11
    1af4:	00004f6c 	andeq	r4, r0, ip, ror #30

00001af8 <__pi_malloc>:
	if (size < 8)
    1af8:	2807      	cmp	r0, #7
		_size = 2;
    1afa:	bf98      	it	ls
    1afc:	2002      	movls	r0, #2
aword *__pi_malloc (word size) {
    1afe:	b538      	push	{r3, r4, r5, lr}
	for (chunk = mpools [MA_NP]; chunk != NULL; cc = chunk,
    1b00:	4b21      	ldr	r3, [pc, #132]	; (1b88 <__pi_malloc+0x90>)
		_size = (((aword)size) + 3) >> 2;
    1b02:	bf88      	it	hi
    1b04:	3003      	addhi	r0, #3
	for (chunk = mpools [MA_NP]; chunk != NULL; cc = chunk,
    1b06:	681c      	ldr	r4, [r3, #0]
		if (m_magic (chunk) != MALLOC_MAGIC)
    1b08:	4920      	ldr	r1, [pc, #128]	; (1b8c <__pi_malloc+0x94>)
		_size = (((aword)size) + 3) >> 2;
    1b0a:	bf88      	it	hi
    1b0c:	0880      	lsrhi	r0, r0, #2
	for (chunk = mpools [MA_NP]; chunk != NULL; cc = chunk,
    1b0e:	b94c      	cbnz	r4, 1b24 <__pi_malloc+0x2c>
		if (mevent [MA_NP] . nfail != 255)
    1b10:	4a1f      	ldr	r2, [pc, #124]	; (1b90 <__pi_malloc+0x98>)
    1b12:	7853      	ldrb	r3, [r2, #1]
    1b14:	2bff      	cmp	r3, #255	; 0xff
    1b16:	d001      	beq.n	1b1c <__pi_malloc+0x24>
			mevent [MA_NP] . nfail ++;
    1b18:	3301      	adds	r3, #1
    1b1a:	7053      	strb	r3, [r2, #1]
		mnfree [MA_NP] = 0;
    1b1c:	2200      	movs	r2, #0
    1b1e:	4b1d      	ldr	r3, [pc, #116]	; (1b94 <__pi_malloc+0x9c>)
    1b20:	601a      	str	r2, [r3, #0]
	return chunk;
    1b22:	e02f      	b.n	1b84 <__pi_malloc+0x8c>
		if (m_magic (chunk) != MALLOC_MAGIC)
    1b24:	6862      	ldr	r2, [r4, #4]
    1b26:	428a      	cmp	r2, r1
    1b28:	d003      	beq.n	1b32 <__pi_malloc+0x3a>
			syserror (EMALLOC, "malc");
    1b2a:	2006      	movs	r0, #6
    1b2c:	491a      	ldr	r1, [pc, #104]	; (1b98 <__pi_malloc+0xa0>)
    1b2e:	f7ff f83f 	bl	bb0 <__pi_syserror>
		if (m_size (chunk) >= _size)
    1b32:	e954 5201 	ldrd	r5, r2, [r4, #-4]
    1b36:	4285      	cmp	r5, r0
    1b38:	d202      	bcs.n	1b40 <__pi_malloc+0x48>
		chunk = m_nextp (chunk)) {
    1b3a:	4623      	mov	r3, r4
    1b3c:	4614      	mov	r4, r2
    1b3e:	e7e6      	b.n	1b0e <__pi_malloc+0x16>
		m_setnextp (cc, m_nextp (chunk));
    1b40:	601a      	str	r2, [r3, #0]
		if ((waste = m_size (chunk) - _size) > MAX_MALLOC_WASTE) {
    1b42:	f854 3c04 	ldr.w	r3, [r4, #-4]
    1b46:	1a1b      	subs	r3, r3, r0
    1b48:	2b08      	cmp	r3, #8
    1b4a:	d909      	bls.n	1b60 <__pi_malloc+0x68>
			m_size (chunk) = _size;
    1b4c:	f844 0c04 	str.w	r0, [r4, #-4]
			cc = chunk + _size + m_hdrlen;
    1b50:	3001      	adds	r0, #1
    1b52:	eb04 0080 	add.w	r0, r4, r0, lsl #2
			m_size (cc) = waste - m_hdrlen;
    1b56:	3b01      	subs	r3, #1
    1b58:	f840 3c04 	str.w	r3, [r0, #-4]
			QFREE;
    1b5c:	f7ff fd78 	bl	1650 <qfree>
		mevent [MA_NP] . nfail = 0;
    1b60:	2200      	movs	r2, #0
    1b62:	4b0b      	ldr	r3, [pc, #44]	; (1b90 <__pi_malloc+0x98>)
		mcfree [MA_NP] -= m_size (chunk);
    1b64:	490d      	ldr	r1, [pc, #52]	; (1b9c <__pi_malloc+0xa4>)
		mevent [MA_NP] . nfail = 0;
    1b66:	705a      	strb	r2, [r3, #1]
		mcfree [MA_NP] -= m_size (chunk);
    1b68:	f854 2c04 	ldr.w	r2, [r4, #-4]
    1b6c:	680b      	ldr	r3, [r1, #0]
    1b6e:	1a9b      	subs	r3, r3, r2
    1b70:	600b      	str	r3, [r1, #0]
		if (mnfree [MA_NP] > mcfree [MA_NP])
    1b72:	4908      	ldr	r1, [pc, #32]	; (1b94 <__pi_malloc+0x9c>)
		m_size (chunk) |= MALLOC_UMASK;
    1b74:	f042 4200 	orr.w	r2, r2, #2147483648	; 0x80000000
		if (mnfree [MA_NP] > mcfree [MA_NP])
    1b78:	6808      	ldr	r0, [r1, #0]
		m_size (chunk) |= MALLOC_UMASK;
    1b7a:	f844 2c04 	str.w	r2, [r4, #-4]
		if (mnfree [MA_NP] > mcfree [MA_NP])
    1b7e:	4283      	cmp	r3, r0
			mnfree [MA_NP] = mcfree [MA_NP];
    1b80:	bf38      	it	cc
    1b82:	600b      	strcc	r3, [r1, #0]
}
    1b84:	4620      	mov	r0, r4
    1b86:	bd38      	pop	{r3, r4, r5, pc}
    1b88:	20000598 	mulcs	r0, r8, r5
    1b8c:	deafdeaf 	cdple	14, 10, cr13, cr15, cr15, {5}
    1b90:	20000590 	mulcs	r0, r0, r5
    1b94:	20000594 	mulcs	r0, r4, r5
    1b98:	00004f70 	andeq	r4, r0, r0, ror pc
    1b9c:	2000058c 	andcs	r0, r0, ip, lsl #11

00001ba0 <__pi_fork>:
aword __pi_fork (fsmcode func, aword data) {
    1ba0:	b538      	push	{r3, r4, r5, lr}
    1ba2:	4605      	mov	r5, r0
	if ((i = (__pi_pcb_t*) umalloc (sizeof (__pi_pcb_t))) == NULL)
    1ba4:	2030      	movs	r0, #48	; 0x30
aword __pi_fork (fsmcode func, aword data) {
    1ba6:	460c      	mov	r4, r1
	if ((i = (__pi_pcb_t*) umalloc (sizeof (__pi_pcb_t))) == NULL)
    1ba8:	f7ff ffa6 	bl	1af8 <__pi_malloc>
    1bac:	2300      	movs	r3, #0
    1bae:	b138      	cbz	r0, 1bc0 <__pi_fork+0x20>
		if ((j = __PCB) == NULL)
    1bb0:	4a07      	ldr	r2, [pc, #28]	; (1bd0 <__pi_fork+0x30>)
	i->Status = 0;
    1bb2:	8003      	strh	r3, [r0, #0]
	i->Next = NULL;
    1bb4:	62c3      	str	r3, [r0, #44]	; 0x2c
		if ((j = __PCB) == NULL)
    1bb6:	6813      	ldr	r3, [r2, #0]
	i->data = data;
    1bb8:	e9c0 5401 	strd	r5, r4, [r0, #4]
		if ((j = __PCB) == NULL)
    1bbc:	b90b      	cbnz	r3, 1bc2 <__pi_fork+0x22>
			__PCB = i;
    1bbe:	6010      	str	r0, [r2, #0]
}
    1bc0:	bd38      	pop	{r3, r4, r5, pc}
			for (; j->Next != NULL; j = j->Next);
    1bc2:	461a      	mov	r2, r3
    1bc4:	6adb      	ldr	r3, [r3, #44]	; 0x2c
    1bc6:	2b00      	cmp	r3, #0
    1bc8:	d1fb      	bne.n	1bc2 <__pi_fork+0x22>
			j->Next = i;
    1bca:	62d0      	str	r0, [r2, #44]	; 0x2c
	return (aword) i;
    1bcc:	e7f8      	b.n	1bc0 <__pi_fork+0x20>
    1bce:	bf00      	nop
    1bd0:	20000584 	andcs	r0, r0, r4, lsl #11

00001bd4 <__pi_waitmem>:
	if (mevent [MA_NP] . nwait != 255)
    1bd4:	4a04      	ldr	r2, [pc, #16]	; (1be8 <__pi_waitmem+0x14>)
void __pi_waitmem (word state) {
    1bd6:	4601      	mov	r1, r0
	if (mevent [MA_NP] . nwait != 255)
    1bd8:	7813      	ldrb	r3, [r2, #0]
	wait ((aword)(&(mevent [MA_NP])), state);
    1bda:	4803      	ldr	r0, [pc, #12]	; (1be8 <__pi_waitmem+0x14>)
	if (mevent [MA_NP] . nwait != 255)
    1bdc:	2bff      	cmp	r3, #255	; 0xff
		mevent [MA_NP] . nwait ++;
    1bde:	bf1c      	itt	ne
    1be0:	3301      	addne	r3, #1
    1be2:	7013      	strbne	r3, [r2, #0]
	wait ((aword)(&(mevent [MA_NP])), state);
    1be4:	f7ff be12 	b.w	180c <__pi_wait>
    1be8:	20000590 	mulcs	r0, r0, r5

00001bec <diag>:

#endif	/* dbg_level */

#if	DIAG_MESSAGES

void diag (const char *mess, ...) {
    1bec:	b40f      	push	{r0, r1, r2, r3}
    1bee:	e92d 43f7 	stmdb	sp!, {r0, r1, r2, r4, r5, r6, r7, r8, r9, lr}
    1bf2:	ab0a      	add	r3, sp, #40	; 0x28
    1bf4:	f853 4b04 	ldr.w	r4, [r3], #4
	sint bc;
	word v;
	byte is;

	va_start (ap, mess);
	diag_disable_int (a, is);
    1bf8:	2015      	movs	r0, #21
	va_start (ap, mess);
    1bfa:	9301      	str	r3, [sp, #4]
	diag_disable_int (a, is);
    1bfc:	4b46      	ldr	r3, [pc, #280]	; (1d18 <diag+0x12c>)
				d = (bc == 16) ? 10000 : 1000000000;
				while (1) {
					// Strip initial zeros
					v = (word) (val / d);
					if (v || d == 1) break;
					d /= 10;
    1bfe:	270a      	movs	r7, #10
	diag_disable_int (a, is);
    1c00:	681b      	ldr	r3, [r3, #0]
				d = (bc == 16) ? 10000 : 1000000000;
    1c02:	f8df 811c 	ldr.w	r8, [pc, #284]	; 1d20 <diag+0x134>
	diag_disable_int (a, is);
    1c06:	695b      	ldr	r3, [r3, #20]
    1c08:	4798      	blx	r3
	while (*mess != '\0') {
    1c0a:	7820      	ldrb	r0, [r4, #0]
    1c0c:	b998      	cbnz	r0, 1c36 <diag+0x4a>
		} else {
			dgout (*mess++);
		}
	}

	dgout ('\r');
    1c0e:	200d      	movs	r0, #13
    1c10:	f7ff fd5e 	bl	16d0 <dgout>
	dgout ('\n');
    1c14:	200a      	movs	r0, #10
    1c16:	f7ff fd5b 	bl	16d0 <dgout>
    1c1a:	4a40      	ldr	r2, [pc, #256]	; (1d1c <diag+0x130>)
    1c1c:	6813      	ldr	r3, [r2, #0]
	diag_wait (a);
    1c1e:	071b      	lsls	r3, r3, #28
    1c20:	d4fc      	bmi.n	1c1c <diag+0x30>
	diag_enable_int (a, is);
    1c22:	4b3d      	ldr	r3, [pc, #244]	; (1d18 <diag+0x12c>)
    1c24:	2015      	movs	r0, #21
    1c26:	681b      	ldr	r3, [r3, #0]
    1c28:	691b      	ldr	r3, [r3, #16]
    1c2a:	4798      	blx	r3
}
    1c2c:	b003      	add	sp, #12
    1c2e:	e8bd 43f0 	ldmia.w	sp!, {r4, r5, r6, r7, r8, r9, lr}
    1c32:	b004      	add	sp, #16
    1c34:	4770      	bx	lr
		if (*mess == '%') {
    1c36:	2825      	cmp	r0, #37	; 0x25
    1c38:	f104 0601 	add.w	r6, r4, #1
    1c3c:	d169      	bne.n	1d12 <diag+0x126>
			if (*mess == 'l') {
    1c3e:	9b01      	ldr	r3, [sp, #4]
    1c40:	7862      	ldrb	r2, [r4, #1]
    1c42:	f853 1b04 	ldr.w	r1, [r3], #4
    1c46:	2a6c      	cmp	r2, #108	; 0x6c
				mess++;
    1c48:	bf08      	it	eq
    1c4a:	1ca6      	addeq	r6, r4, #2
				val = va_arg (ap, lword);
    1c4c:	9301      	str	r3, [sp, #4]
			switch (*mess) {
    1c4e:	7833      	ldrb	r3, [r6, #0]
				bc = 32;
    1c50:	bf0c      	ite	eq
    1c52:	2520      	moveq	r5, #32
				bc = 16;
    1c54:	2510      	movne	r5, #16
			switch (*mess) {
    1c56:	2b75      	cmp	r3, #117	; 0x75
    1c58:	d04e      	beq.n	1cf8 <diag+0x10c>
    1c5a:	d80a      	bhi.n	1c72 <diag+0x86>
    1c5c:	2b64      	cmp	r3, #100	; 0x64
    1c5e:	d01c      	beq.n	1c9a <diag+0xae>
    1c60:	2b73      	cmp	r3, #115	; 0x73
    1c62:	d052      	beq.n	1d0a <diag+0x11e>
				dgout ('%');
    1c64:	2025      	movs	r0, #37	; 0x25
    1c66:	f7ff fd33 	bl	16d0 <dgout>
				dgout (*mess);
    1c6a:	7830      	ldrb	r0, [r6, #0]
    1c6c:	f7ff fd30 	bl	16d0 <dgout>
    1c70:	e010      	b.n	1c94 <diag+0xa8>
			switch (*mess) {
    1c72:	2b78      	cmp	r3, #120	; 0x78
    1c74:	d1f6      	bne.n	1c64 <diag+0x78>
    1c76:	2400      	movs	r4, #0
					v = __pi_hex_enc_table [
    1c78:	f8df 90a8 	ldr.w	r9, [pc, #168]	; 1d24 <diag+0x138>
					i += 4;
    1c7c:	3404      	adds	r4, #4
					(val >> (bc - i)) & 0xf];
    1c7e:	1b2b      	subs	r3, r5, r4
    1c80:	fa21 f303 	lsr.w	r3, r1, r3
    1c84:	f003 030f 	and.w	r3, r3, #15
					dgout (v);
    1c88:	f819 0003 	ldrb.w	r0, [r9, r3]
    1c8c:	f7ff fd20 	bl	16d0 <dgout>
				while (i < bc) {
    1c90:	42a5      	cmp	r5, r4
    1c92:	dcf3      	bgt.n	1c7c <diag+0x90>
			mess++;
    1c94:	3601      	adds	r6, #1
					d /= 10;
    1c96:	4634      	mov	r4, r6
    1c98:	e7b7      	b.n	1c0a <diag+0x1e>
				if ((val >> (bc - 1)) & 1) {
    1c9a:	1e6b      	subs	r3, r5, #1
    1c9c:	fa21 f303 	lsr.w	r3, r1, r3
    1ca0:	07da      	lsls	r2, r3, #31
    1ca2:	d509      	bpl.n	1cb8 <diag+0xcc>
					dgout ('-');
    1ca4:	202d      	movs	r0, #45	; 0x2d
    1ca6:	f7ff fd13 	bl	16d0 <dgout>
					if (bc == 16)
    1caa:	2d10      	cmp	r5, #16
						val |= 0xffff0000;
    1cac:	bf04      	itt	eq
    1cae:	ea6f 4101 	mvneq.w	r1, r1, lsl #16
    1cb2:	ea6f 4111 	mvneq.w	r1, r1, lsr #16
					val = ~val + 1;
    1cb6:	4249      	negs	r1, r1
				d = (bc == 16) ? 10000 : 1000000000;
    1cb8:	f242 7410 	movw	r4, #10000	; 0x2710
    1cbc:	2d10      	cmp	r5, #16
    1cbe:	bf18      	it	ne
    1cc0:	4644      	movne	r4, r8
					v = (word) (val / d);
    1cc2:	fbb1 f5f4 	udiv	r5, r1, r4
    1cc6:	b2ad      	uxth	r5, r5
					if (v || d == 1) break;
    1cc8:	b935      	cbnz	r5, 1cd8 <diag+0xec>
    1cca:	2c01      	cmp	r4, #1
    1ccc:	d004      	beq.n	1cd8 <diag+0xec>
					d /= 10;
    1cce:	fbb4 f4f7 	udiv	r4, r4, r7
					v = (word) (val / d);
    1cd2:	e7f6      	b.n	1cc2 <diag+0xd6>
				d = (bc == 16) ? 10000 : 1000000000;
    1cd4:	4c12      	ldr	r4, [pc, #72]	; (1d20 <diag+0x134>)
    1cd6:	e7f4      	b.n	1cc2 <diag+0xd6>
					dgout (v + '0');
    1cd8:	f105 0030 	add.w	r0, r5, #48	; 0x30
    1cdc:	b280      	uxth	r0, r0
    1cde:	f7ff fcf7 	bl	16d0 <dgout>
					if (d == 0) break;
    1ce2:	2c09      	cmp	r4, #9
					d /= 10;
    1ce4:	fbb4 f3f7 	udiv	r3, r4, r7
					val = val - (v * d);
    1ce8:	fb04 1115 	mls	r1, r4, r5, r1
					if (d == 0) break;
    1cec:	d9d2      	bls.n	1c94 <diag+0xa8>
					v = (word) (val / d);
    1cee:	fbb1 f5f3 	udiv	r5, r1, r3
					d /= 10;
    1cf2:	461c      	mov	r4, r3
					v = (word) (val / d);
    1cf4:	b2ad      	uxth	r5, r5
					dgout (v + '0');
    1cf6:	e7ef      	b.n	1cd8 <diag+0xec>
				if (bc == 16)
    1cf8:	2d10      	cmp	r5, #16
    1cfa:	d1eb      	bne.n	1cd4 <diag+0xe8>
				d = (bc == 16) ? 10000 : 1000000000;
    1cfc:	f242 7410 	movw	r4, #10000	; 0x2710
					val &= 0xffff;
    1d00:	b289      	uxth	r1, r1
				d = (bc == 16) ? 10000 : 1000000000;
    1d02:	e7de      	b.n	1cc2 <diag+0xd6>
					dgout (*s);
    1d04:	f7ff fce4 	bl	16d0 <dgout>
					s++;
    1d08:	3101      	adds	r1, #1
				while (*s != '\0') {
    1d0a:	7808      	ldrb	r0, [r1, #0]
    1d0c:	2800      	cmp	r0, #0
    1d0e:	d1f9      	bne.n	1d04 <diag+0x118>
    1d10:	e7c0      	b.n	1c94 <diag+0xa8>
			dgout (*mess++);
    1d12:	f7ff fcdd 	bl	16d0 <dgout>
    1d16:	e7be      	b.n	1c96 <diag+0xaa>
    1d18:	100001b0 			; <UNDEFINED> instruction: 0x100001b0
    1d1c:	40001018 	andmi	r1, r0, r8, lsl r0
    1d20:	3b9aca00 	blcc	fe6b4528 <_estack+0xde6af528>
    1d24:	00004f75 	andeq	r4, r0, r5, ror pc

00001d28 <lrnd>:
// ============================================================================
// High-quality RNG (oh, well, as high as we can afford) ======================
// ============================================================================
#if RANDOM_NUMBER_GENERATOR > 1
lword lrnd () {
	__pi_seed = __pi_seed * 1103515245 + 12345;
    1d28:	f243 0039 	movw	r0, #12345	; 0x3039
    1d2c:	4a04      	ldr	r2, [pc, #16]	; (1d40 <lrnd+0x18>)
    1d2e:	4905      	ldr	r1, [pc, #20]	; (1d44 <lrnd+0x1c>)
    1d30:	6813      	ldr	r3, [r2, #0]
    1d32:	fb01 0303 	mla	r3, r1, r3, r0
    1d36:	6013      	str	r3, [r2, #0]
	return __pi_seed
#if ENTROPY_COLLECTION
	^ entropy
    1d38:	4a03      	ldr	r2, [pc, #12]	; (1d48 <lrnd+0x20>)
    1d3a:	6810      	ldr	r0, [r2, #0]
#endif
	;
}
    1d3c:	4058      	eors	r0, r3
    1d3e:	4770      	bx	lr
    1d40:	20000004 	andcs	r0, r0, r4
    1d44:	41c64e6d 	bicmi	r4, r6, sp, ror #28
    1d48:	200006ac 	andcs	r0, r0, ip, lsr #13

00001d4c <apb>:
/*
 * Forced implicit packet dropping removed. Plugins will have to drop
 * packets explicitly (if they really want to).
 */

__PRIVF (PicOSNode, hblock_t*, apb) (word size) {
    1d4c:	b510      	push	{r4, lr}
    1d4e:	4604      	mov	r4, r0
/* ========================================= */
/* Allocates a packet buffer size bytes long */
/* ========================================= */

	hblock_t *p;
	word cs = size + hblenb;
    1d50:	300c      	adds	r0, #12

	if ((p = (hblock_t*)b_malloc (cs)) == NULL)
    1d52:	b280      	uxth	r0, r0
    1d54:	f7ff fed0 	bl	1af8 <__pi_malloc>
    1d58:	b110      	cbz	r0, 1d60 <apb+0x14>

#if	TCV_HOOKS
	p -> hptr = NULL;
#endif
	p -> length = size;
	p -> attributes . value = 0;
    1d5a:	2300      	movs	r3, #0
	p -> length = size;
    1d5c:	8104      	strh	r4, [r0, #8]
	p -> attributes . value = 0;
    1d5e:	8143      	strh	r3, [r0, #10]
#endif
	return p;
	/*
	 * Note that this doesn't initialize the plugin/phys/session stuff.
	 */
}
    1d60:	bd10      	pop	{r4, pc}

00001d62 <deq>:
	if (p->attributes.b.queued) {
    1d62:	7a83      	ldrb	r3, [r0, #10]
    1d64:	07db      	lsls	r3, r3, #31
    1d66:	d508      	bpl.n	1d7a <deq+0x18>
		p->u.bqueue.next -> prev = p->u.bqueue.prev;
    1d68:	e9d0 2300 	ldrd	r2, r3, [r0]
    1d6c:	6053      	str	r3, [r2, #4]
		p->u.bqueue.prev -> next = p->u.bqueue.next;
    1d6e:	6802      	ldr	r2, [r0, #0]
    1d70:	601a      	str	r2, [r3, #0]
		p->attributes.b.queued = 0;
    1d72:	7a83      	ldrb	r3, [r0, #10]
    1d74:	f36f 0300 	bfc	r3, #0, #1
    1d78:	7283      	strb	r3, [r0, #10]
}
    1d7a:	4770      	bx	lr

00001d7c <rlp>:
__PRIVF (PicOSNode, void, rlp) (hblock_t *p) {
    1d7c:	b508      	push	{r3, lr}
	deq (p);	// Remove from queue
    1d7e:	f7ff fff0 	bl	1d62 <deq>
}
    1d82:	e8bd 4008 	ldmia.w	sp!, {r3, lr}
	tfree ((address)p);
    1d86:	f7ff be6b 	b.w	1a60 <__pi_free>
	...

00001d8c <enq>:
__PRIVF (PicOSNode, void, enq) (qhead_t *q, hblock_t *p) {
    1d8c:	b538      	push	{r3, r4, r5, lr}
	sysassert (p->attributes.b.queued == 0, "tcv01");
    1d8e:	7a8b      	ldrb	r3, [r1, #10]
__PRIVF (PicOSNode, void, enq) (qhead_t *q, hblock_t *p) {
    1d90:	4605      	mov	r5, r0
	sysassert (p->attributes.b.queued == 0, "tcv01");
    1d92:	07da      	lsls	r2, r3, #31
__PRIVF (PicOSNode, void, enq) (qhead_t *q, hblock_t *p) {
    1d94:	460c      	mov	r4, r1
	sysassert (p->attributes.b.queued == 0, "tcv01");
    1d96:	d503      	bpl.n	1da0 <enq+0x14>
    1d98:	200a      	movs	r0, #10
    1d9a:	490e      	ldr	r1, [pc, #56]	; (1dd4 <enq+0x48>)
    1d9c:	f7fe ff08 	bl	bb0 <__pi_syserror>
	if (q_empty (q))
    1da0:	6803      	ldr	r3, [r0, #0]
    1da2:	4283      	cmp	r3, r0
    1da4:	d101      	bne.n	1daa <enq+0x1e>
		trigger (q);
    1da6:	f7ff fd4b 	bl	1840 <__pi_trigger>
	if (p->attributes.b.urgent) {
    1daa:	7aa3      	ldrb	r3, [r4, #10]
    1dac:	075b      	lsls	r3, r3, #29
    1dae:	d50a      	bpl.n	1dc6 <enq+0x3a>
		p->u.bqueue.next = q->next;
    1db0:	682b      	ldr	r3, [r5, #0]
		p->u.bqueue.prev = q;
    1db2:	e9c4 3500 	strd	r3, r5, [r4]
		q->next->prev = (qitem_t*) p;
    1db6:	682b      	ldr	r3, [r5, #0]
    1db8:	605c      	str	r4, [r3, #4]
		q->next = (qitem_t*) p;
    1dba:	602c      	str	r4, [r5, #0]
	p->attributes.b.queued = 1;
    1dbc:	7aa3      	ldrb	r3, [r4, #10]
    1dbe:	f043 0301 	orr.w	r3, r3, #1
    1dc2:	72a3      	strb	r3, [r4, #10]
}
    1dc4:	bd38      	pop	{r3, r4, r5, pc}
		p->u.bqueue.next = q;
    1dc6:	6025      	str	r5, [r4, #0]
		p->u.bqueue.prev = q->prev;
    1dc8:	686b      	ldr	r3, [r5, #4]
    1dca:	6063      	str	r3, [r4, #4]
		q->prev->next = (qitem_t*) p;
    1dcc:	601c      	str	r4, [r3, #0]
		q->prev = (qitem_t*) p;
    1dce:	606c      	str	r4, [r5, #4]
    1dd0:	e7f4      	b.n	1dbc <enq+0x30>
    1dd2:	bf00      	nop
    1dd4:	00004f85 	andeq	r4, r0, r5, lsl #31

00001dd8 <dispose>:
__PRIVF (PicOSNode, void, dispose) (hblock_t *p, int dv) {
    1dd8:	b510      	push	{r4, lr}
    1dda:	4604      	mov	r4, r0
	deq (p);	// Soft dequeue, timer and hook left intact
    1ddc:	f7ff ffc1 	bl	1d62 <deq>
	switch (dv) {
    1de0:	3901      	subs	r1, #1
    1de2:	2904      	cmp	r1, #4
    1de4:	d832      	bhi.n	1e4c <dispose+0x74>
    1de6:	e8df f001 	tbb	[pc, r1]
    1dea:	1d03072d 	stcne	7, cr0, [r3, #-180]	; 0xffffff4c
    1dee:	7a830019 	bvc	fe0c1e5a <_estack+0xde0bce5a>
			p->attributes.b.urgent = 1;
    1df2:	f043 0304 	orr.w	r3, r3, #4
    1df6:	7283      	strb	r3, [r0, #10]
			verify_ses (p, "dispose ses");
    1df8:	8963      	ldrh	r3, [r4, #10]
    1dfa:	f3c3 03c6 	ubfx	r3, r3, #3, #7
    1dfe:	2b07      	cmp	r3, #7
    1e00:	d803      	bhi.n	1e0a <dispose+0x32>
    1e02:	4a13      	ldr	r2, [pc, #76]	; (1e50 <dispose+0x78>)
    1e04:	f852 0023 	ldr.w	r0, [r2, r3, lsl #2]
    1e08:	b918      	cbnz	r0, 1e12 <dispose+0x3a>
    1e0a:	4912      	ldr	r1, [pc, #72]	; (1e54 <dispose+0x7c>)
			verify_phy (p, "dispose phy");
    1e0c:	200a      	movs	r0, #10
    1e0e:	f7fe fecf 	bl	bb0 <__pi_syserror>
			enq (&(descriptors [p->attributes.b.session]->rqueue),
    1e12:	4621      	mov	r1, r4
}
    1e14:	e8bd 4010 	ldmia.w	sp!, {r4, lr}
			enq (oqueues [p->attributes.b.phys], p);
    1e18:	f7ff bfb8 	b.w	1d8c <enq>
			p->attributes.b.urgent = 1;
    1e1c:	7a83      	ldrb	r3, [r0, #10]
    1e1e:	f043 0304 	orr.w	r3, r3, #4
    1e22:	7283      	strb	r3, [r0, #10]
			verify_phy (p, "dispose phy");
    1e24:	7ae2      	ldrb	r2, [r4, #11]
    1e26:	2a5f      	cmp	r2, #95	; 0x5f
    1e28:	ea4f 1352 	mov.w	r3, r2, lsr #5
    1e2c:	d803      	bhi.n	1e36 <dispose+0x5e>
    1e2e:	4a0a      	ldr	r2, [pc, #40]	; (1e58 <dispose+0x80>)
    1e30:	f852 2023 	ldr.w	r2, [r2, r3, lsl #2]
    1e34:	b90a      	cbnz	r2, 1e3a <dispose+0x62>
    1e36:	4909      	ldr	r1, [pc, #36]	; (1e5c <dispose+0x84>)
    1e38:	e7e8      	b.n	1e0c <dispose+0x34>
			enq (oqueues [p->attributes.b.phys], p);
    1e3a:	4a09      	ldr	r2, [pc, #36]	; (1e60 <dispose+0x88>)
    1e3c:	4621      	mov	r1, r4
    1e3e:	f852 0023 	ldr.w	r0, [r2, r3, lsl #2]
    1e42:	e7e7      	b.n	1e14 <dispose+0x3c>
}
    1e44:	e8bd 4010 	ldmia.w	sp!, {r4, lr}
			rlp (p);
    1e48:	f7ff bf98 	b.w	1d7c <rlp>
}
    1e4c:	bd10      	pop	{r4, pc}
    1e4e:	bf00      	nop
    1e50:	2000059c 	mulcs	r0, ip, r5
    1e54:	00004f8b 	andeq	r4, r0, fp, lsl #31
    1e58:	200005c8 	andcs	r0, r0, r8, asr #11
    1e5c:	00004f97 	muleq	r0, r7, pc	; <UNPREDICTABLE>
    1e60:	200005bc 			; <UNDEFINED> instruction: 0x200005bc

00001e64 <tcv_endp>:
		/* ===================================== */
		/* Functions callable by the application */
		/* ===================================== */
/* ---------------------------------------------------------------------- */

__PUBLF (PicOSNode, void, tcv_endp) (address p) {
    1e64:	b510      	push	{r4, lr}
 * somewhere or deallocated.
 */
	hblock_t *b;

	b = header (p);
	if (b->attributes.b.outgoing) {
    1e66:	f810 2c02 	ldrb.w	r2, [r0, #-2]
	b = header (p);
    1e6a:	f1a0 040c 	sub.w	r4, r0, #12
	if (b->attributes.b.outgoing) {
    1e6e:	0792      	lsls	r2, r2, #30
    1e70:	d522      	bpl.n	1eb8 <tcv_endp+0x54>
		verify_ses (b, "tcv02");
    1e72:	f830 2c02 	ldrh.w	r2, [r0, #-2]
    1e76:	f3c2 02c6 	ubfx	r2, r2, #3, #7
    1e7a:	2a07      	cmp	r2, #7
    1e7c:	d803      	bhi.n	1e86 <tcv_endp+0x22>
    1e7e:	4911      	ldr	r1, [pc, #68]	; (1ec4 <tcv_endp+0x60>)
    1e80:	f851 2022 	ldr.w	r2, [r1, r2, lsl #2]
    1e84:	b91a      	cbnz	r2, 1e8e <tcv_endp+0x2a>
    1e86:	4910      	ldr	r1, [pc, #64]	; (1ec8 <tcv_endp+0x64>)
		verify_plg (b, tcv_out, "tcv03");
    1e88:	200a      	movs	r0, #10
    1e8a:	f7fe fe91 	bl	bb0 <__pi_syserror>
    1e8e:	f810 3c01 	ldrb.w	r3, [r0, #-1]
    1e92:	f3c3 0382 	ubfx	r3, r3, #2, #3
    1e96:	2b02      	cmp	r3, #2
    1e98:	d805      	bhi.n	1ea6 <tcv_endp+0x42>
    1e9a:	4a0c      	ldr	r2, [pc, #48]	; (1ecc <tcv_endp+0x68>)
    1e9c:	f852 3023 	ldr.w	r3, [r2, r3, lsl #2]
    1ea0:	b10b      	cbz	r3, 1ea6 <tcv_endp+0x42>
    1ea2:	691b      	ldr	r3, [r3, #16]
    1ea4:	b90b      	cbnz	r3, 1eaa <tcv_endp+0x46>
    1ea6:	490a      	ldr	r1, [pc, #40]	; (1ed0 <tcv_endp+0x6c>)
    1ea8:	e7ee      	b.n	1e88 <tcv_endp+0x24>
		dispose (b, plugins [b->attributes.b.plugin] ->
    1eaa:	4798      	blx	r3
    1eac:	4601      	mov	r1, r0
    1eae:	4620      	mov	r0, r4
		 * This is a received packet - just drop it, no need to verify
		 * session, can be legitimately invoked after the session has
		 * been closed,
		 */
		rlp (b);
}
    1eb0:	e8bd 4010 	ldmia.w	sp!, {r4, lr}
		dispose (b, plugins [b->attributes.b.plugin] ->
    1eb4:	f7ff bf90 	b.w	1dd8 <dispose>
		rlp (b);
    1eb8:	4620      	mov	r0, r4
}
    1eba:	e8bd 4010 	ldmia.w	sp!, {r4, lr}
		rlp (b);
    1ebe:	f7ff bf5d 	b.w	1d7c <rlp>
    1ec2:	bf00      	nop
    1ec4:	2000059c 	mulcs	r0, ip, r5
    1ec8:	00004fa3 	andeq	r4, r0, r3, lsr #31
    1ecc:	200005e0 	andcs	r0, r0, r0, ror #11
    1ed0:	00004fa9 	andeq	r4, r0, r9, lsr #31

00001ed4 <tcv_open>:
#else
// ============================================================================

// Non-blocking open and close

__PUBLF (PicOSNode, int, tcv_open) (word state, int phy, int plid, ... ) {
    1ed4:	b40c      	push	{r2, r3}
    1ed6:	e92d 47f3 	stmdb	sp!, {r0, r1, r4, r5, r6, r7, r8, r9, sl, lr}
    1eda:	ab0a      	add	r3, sp, #40	; 0x28
    1edc:	f853 8b04 	ldr.w	r8, [r3], #4
	va_list		ap;
	va_start (ap, plid);

#if DIAG_MESSAGES > 1
	/* Check if we have the plugin and the phy */
	if (phy < 0 || phy >= TCV_MAX_PHYS || oqueues [phy] == NULL ||
    1ee0:	2902      	cmp	r1, #2
__PUBLF (PicOSNode, int, tcv_open) (word state, int phy, int plid, ... ) {
    1ee2:	460f      	mov	r7, r1
	va_start (ap, plid);
    1ee4:	9301      	str	r3, [sp, #4]
	if (phy < 0 || phy >= TCV_MAX_PHYS || oqueues [phy] == NULL ||
    1ee6:	d80b      	bhi.n	1f00 <tcv_open+0x2c>
    1ee8:	4b24      	ldr	r3, [pc, #144]	; (1f7c <tcv_open+0xa8>)
    1eea:	f853 3021 	ldr.w	r3, [r3, r1, lsl #2]
    1eee:	b13b      	cbz	r3, 1f00 <tcv_open+0x2c>
		plid < 0 || plid >= TCV_MAX_PLUGS || plugins [plid] == NULL)
    1ef0:	f1b8 0f02 	cmp.w	r8, #2
    1ef4:	d804      	bhi.n	1f00 <tcv_open+0x2c>
    1ef6:	4b22      	ldr	r3, [pc, #136]	; (1f80 <tcv_open+0xac>)
    1ef8:	f853 2028 	ldr.w	r2, [r3, r8, lsl #2]
    1efc:	4699      	mov	r9, r3
    1efe:	b91a      	cbnz	r2, 1f08 <tcv_open+0x34>
			syserror (ENODEVICE, "tcv04");
    1f00:	2001      	movs	r0, #1
    1f02:	4920      	ldr	r1, [pc, #128]	; (1f84 <tcv_open+0xb0>)
	if (fd == TCV_MAX_DESC)
		return ERROR;

	s = (sesdesc_t*) s_malloc (sizeof (sesdesc_t));
	if (s == NULL)
		syserror (EMALLOC, "tcv05");
    1f04:	f7fe fe54 	bl	bb0 <__pi_syserror>
	attp.b.outgoing = 1;
    1f08:	f008 0307 	and.w	r3, r8, #7
    1f0c:	029b      	lsls	r3, r3, #10
    1f0e:	f043 0302 	orr.w	r3, r3, #2
    1f12:	ea43 3541 	orr.w	r5, r3, r1, lsl #13
	for (fd = 0; fd < TCV_MAX_DESC; fd++)
    1f16:	4b1c      	ldr	r3, [pc, #112]	; (1f88 <tcv_open+0xb4>)
    1f18:	2600      	movs	r6, #0
    1f1a:	469a      	mov	sl, r3
		if (descriptors [fd] == NULL)
    1f1c:	f853 2b04 	ldr.w	r2, [r3], #4
    1f20:	b312      	cbz	r2, 1f68 <tcv_open+0x94>
	for (fd = 0; fd < TCV_MAX_DESC; fd++)
    1f22:	3601      	adds	r6, #1
    1f24:	2e08      	cmp	r6, #8
    1f26:	d1f9      	bne.n	1f1c <tcv_open+0x48>
		return ERROR;
    1f28:	f04f 36ff 	mov.w	r6, #4294967295	; 0xffffffff
		return ERROR;
	}

	descriptors [fd] = s;
	return fd;
}
    1f2c:	4630      	mov	r0, r6
    1f2e:	b002      	add	sp, #8
    1f30:	e8bd 47f0 	ldmia.w	sp!, {r4, r5, r6, r7, r8, r9, sl, lr}
    1f34:	b002      	add	sp, #8
    1f36:	4770      	bx	lr
	s->attpattern.b.session = fd;
    1f38:	462b      	mov	r3, r5
    1f3a:	f366 03c9 	bfi	r3, r6, #3, #7
	descriptors [fd] = s;
    1f3e:	f84a 4026 	str.w	r4, [sl, r6, lsl #2]
	s->attpattern.b.session = fd;
    1f42:	8123      	strh	r3, [r4, #8]
	q_init (&(s->rqueue));
    1f44:	e9c4 4400 	strd	r4, r4, [r4]
	sysassert (plugins [plid] -> tcv_ope != NULL, "tcv06");
    1f48:	f859 3028 	ldr.w	r3, [r9, r8, lsl #2]
    1f4c:	681b      	ldr	r3, [r3, #0]
    1f4e:	b913      	cbnz	r3, 1f56 <tcv_open+0x82>
    1f50:	200a      	movs	r0, #10
    1f52:	490e      	ldr	r1, [pc, #56]	; (1f8c <tcv_open+0xb8>)
    1f54:	e7d6      	b.n	1f04 <tcv_open+0x30>
	if (plugins [plid] -> tcv_ope (phy, fd, ap)) {
    1f56:	4631      	mov	r1, r6
    1f58:	4638      	mov	r0, r7
    1f5a:	9a01      	ldr	r2, [sp, #4]
    1f5c:	4798      	blx	r3
    1f5e:	2800      	cmp	r0, #0
    1f60:	d1e2      	bne.n	1f28 <tcv_open+0x54>
	descriptors [fd] = s;
    1f62:	f84a 4026 	str.w	r4, [sl, r6, lsl #2]
	return fd;
    1f66:	e7e1      	b.n	1f2c <tcv_open+0x58>
	s = (sesdesc_t*) s_malloc (sizeof (sesdesc_t));
    1f68:	200c      	movs	r0, #12
    1f6a:	f7ff fdc5 	bl	1af8 <__pi_malloc>
	if (s == NULL)
    1f6e:	4604      	mov	r4, r0
    1f70:	2800      	cmp	r0, #0
    1f72:	d1e1      	bne.n	1f38 <tcv_open+0x64>
		syserror (EMALLOC, "tcv05");
    1f74:	2006      	movs	r0, #6
    1f76:	4906      	ldr	r1, [pc, #24]	; (1f90 <tcv_open+0xbc>)
    1f78:	e7c4      	b.n	1f04 <tcv_open+0x30>
    1f7a:	bf00      	nop
    1f7c:	200005bc 			; <UNDEFINED> instruction: 0x200005bc
    1f80:	200005e0 	andcs	r0, r0, r0, ror #11
    1f84:	00004faf 	andeq	r4, r0, pc, lsr #31
    1f88:	2000059c 	mulcs	r0, ip, r5
    1f8c:	00004fbb 			; <UNDEFINED> instruction: 0x00004fbb
    1f90:	00004fb5 			; <UNDEFINED> instruction: 0x00004fb5

00001f94 <tcv_plug>:

__PUBLF (PicOSNode, int, tcv_plug) (int ord, const tcvplug_t *pl) {
/*
 * This is one way now. Later we may implement switching plugs on the fly.
 */
	if (ord < 0 || ord >= TCV_MAX_PLUGS ||
    1f94:	2802      	cmp	r0, #2
    1f96:	d809      	bhi.n	1fac <tcv_plug+0x18>
	    (plugins [ord] != NULL && plugins [ord] != pl))
    1f98:	4b06      	ldr	r3, [pc, #24]	; (1fb4 <tcv_plug+0x20>)
    1f9a:	f853 2020 	ldr.w	r2, [r3, r0, lsl #2]
	if (ord < 0 || ord >= TCV_MAX_PLUGS ||
    1f9e:	b10a      	cbz	r2, 1fa4 <tcv_plug+0x10>
	    (plugins [ord] != NULL && plugins [ord] != pl))
    1fa0:	428a      	cmp	r2, r1
    1fa2:	d103      	bne.n	1fac <tcv_plug+0x18>
		return ERROR;

	plugins [ord] = pl;
    1fa4:	f843 1020 	str.w	r1, [r3, r0, lsl #2]
	return 0;
    1fa8:	2000      	movs	r0, #0
    1faa:	4770      	bx	lr
		return ERROR;
    1fac:	f04f 30ff 	mov.w	r0, #4294967295	; 0xffffffff
}
    1fb0:	4770      	bx	lr
    1fb2:	bf00      	nop
    1fb4:	200005e0 	andcs	r0, r0, r0, ror #11

00001fb8 <tcv_rnp>:
 */
	address p;
	hblock_t *b;
	qhead_t *rq;

	verify_fds (fd, "tcv10");
    1fb8:	2908      	cmp	r1, #8
__PUBLF (PicOSNode, address, tcv_rnp) (word state, int fd) {
    1fba:	b538      	push	{r3, r4, r5, lr}
    1fbc:	4603      	mov	r3, r0
	verify_fds (fd, "tcv10");
    1fbe:	d803      	bhi.n	1fc8 <tcv_rnp+0x10>
    1fc0:	4a19      	ldr	r2, [pc, #100]	; (2028 <tcv_rnp+0x70>)
    1fc2:	f852 0021 	ldr.w	r0, [r2, r1, lsl #2]
    1fc6:	b918      	cbnz	r0, 1fd0 <tcv_rnp+0x18>
    1fc8:	4918      	ldr	r1, [pc, #96]	; (202c <tcv_rnp+0x74>)
	deqtm (b);	// ... and clear its timer

	/* Packet pointer */
	p = ((address)(b + 1));
	/* Set the pointers to application data */
	verify_plg (b, tcv_frm, "tcv11");
    1fca:	200a      	movs	r0, #10
    1fcc:	f7fe fdf0 	bl	bb0 <__pi_syserror>
	b = q_first (rq);
    1fd0:	6804      	ldr	r4, [r0, #0]
	if (q_end (b, rq)) {
    1fd2:	42a0      	cmp	r0, r4
    1fd4:	d108      	bne.n	1fe8 <tcv_rnp+0x30>
		if (state != WNONE) {
    1fd6:	f64f 72ff 	movw	r2, #65535	; 0xffff
    1fda:	4293      	cmp	r3, r2
    1fdc:	d021      	beq.n	2022 <tcv_rnp+0x6a>
			when (rq, state);
    1fde:	4619      	mov	r1, r3
    1fe0:	f7ff fc14 	bl	180c <__pi_wait>
			release;
    1fe4:	f7ff f9a2 	bl	132c <__pi_release>
	deq (b);	// Dequeue the packet ...
    1fe8:	4620      	mov	r0, r4
    1fea:	f7ff feba 	bl	1d62 <deq>
	verify_plg (b, tcv_frm, "tcv11");
    1fee:	7ae3      	ldrb	r3, [r4, #11]
	p = ((address)(b + 1));
    1ff0:	f104 050c 	add.w	r5, r4, #12
	verify_plg (b, tcv_frm, "tcv11");
    1ff4:	f3c3 0382 	ubfx	r3, r3, #2, #3
    1ff8:	2b02      	cmp	r3, #2
    1ffa:	d805      	bhi.n	2008 <tcv_rnp+0x50>
    1ffc:	4a0c      	ldr	r2, [pc, #48]	; (2030 <tcv_rnp+0x78>)
    1ffe:	f852 3023 	ldr.w	r3, [r2, r3, lsl #2]
    2002:	b10b      	cbz	r3, 2008 <tcv_rnp+0x50>
    2004:	68db      	ldr	r3, [r3, #12]
    2006:	b90b      	cbnz	r3, 200c <tcv_rnp+0x54>
    2008:	490a      	ldr	r1, [pc, #40]	; (2034 <tcv_rnp+0x7c>)
    200a:	e7de      	b.n	1fca <tcv_rnp+0x12>
	plugins [b->attributes.b.plugin]->tcv_frm (p, &(b->u.pointers));
    200c:	4621      	mov	r1, r4
    200e:	4628      	mov	r0, r5
    2010:	4798      	blx	r3
	/* Adjust the second pointer to look like the length */
	b->u.pointers.tail =
		b->length - b->u.pointers.head - b->u.pointers.tail;
    2012:	8823      	ldrh	r3, [r4, #0]
    2014:	8862      	ldrh	r2, [r4, #2]
    2016:	441a      	add	r2, r3
    2018:	8923      	ldrh	r3, [r4, #8]
    201a:	1a9b      	subs	r3, r3, r2
	b->u.pointers.tail =
    201c:	8063      	strh	r3, [r4, #2]
	/* OK, it seems that we are set */
	return p;
}
    201e:	4628      	mov	r0, r5
    2020:	bd38      	pop	{r3, r4, r5, pc}
		return NULL;
    2022:	2500      	movs	r5, #0
    2024:	e7fb      	b.n	201e <tcv_rnp+0x66>
    2026:	bf00      	nop
    2028:	2000059c 	mulcs	r0, ip, r5
    202c:	00004fc1 	andeq	r4, r0, r1, asr #31
    2030:	200005e0 	andcs	r0, r0, r0, ror #11
    2034:	00004fc7 	andeq	r4, r0, r7, asr #31

00002038 <tcv_wnps>:
	hblock_t *b;
	tcvadp_t ptrs;
	sesdesc_t *s;
	int eid;

	verify_fds (fd, "tcv16");
    2038:	2908      	cmp	r1, #8
								Boolean urg) {
    203a:	b5f7      	push	{r0, r1, r2, r4, r5, r6, r7, lr}
    203c:	4605      	mov	r5, r0
    203e:	4614      	mov	r4, r2
    2040:	461e      	mov	r6, r3
	verify_fds (fd, "tcv16");
    2042:	d803      	bhi.n	204c <tcv_wnps+0x14>
    2044:	4b26      	ldr	r3, [pc, #152]	; (20e0 <tcv_wnps+0xa8>)
    2046:	f853 7021 	ldr.w	r7, [r3, r1, lsl #2]
    204a:	b91f      	cbnz	r7, 2054 <tcv_wnps+0x1c>
    204c:	4925      	ldr	r1, [pc, #148]	; (20e4 <tcv_wnps+0xac>)

	s = descriptors [fd];

	verify_pld (s, tcv_frm, "tcv17");
    204e:	200a      	movs	r0, #10
    2050:	f7fe fdae 	bl	bb0 <__pi_syserror>
    2054:	7a7b      	ldrb	r3, [r7, #9]
    2056:	f3c3 0382 	ubfx	r3, r3, #2, #3
    205a:	2b02      	cmp	r3, #2
    205c:	d805      	bhi.n	206a <tcv_wnps+0x32>
    205e:	4a22      	ldr	r2, [pc, #136]	; (20e8 <tcv_wnps+0xb0>)
    2060:	f852 3023 	ldr.w	r3, [r2, r3, lsl #2]
    2064:	b10b      	cbz	r3, 206a <tcv_wnps+0x32>
    2066:	68db      	ldr	r3, [r3, #12]
    2068:	b90b      	cbnz	r3, 206e <tcv_wnps+0x36>
    206a:	4920      	ldr	r1, [pc, #128]	; (20ec <tcv_wnps+0xb4>)
    206c:	e7ef      	b.n	204e <tcv_wnps+0x16>

	// tcv_frm invoked with packet == NULL, pass in the frame parameters
	// the session and urgent flag
	ptrs.head = (word) fd;
    206e:	f8ad 1004 	strh.w	r1, [sp, #4]
	ptrs.tail = (word) urg;

	if ((eid = plugins [s->attpattern.b.plugin]->tcv_frm (NULL, &ptrs))) {
    2072:	2000      	movs	r0, #0
	ptrs.tail = (word) urg;
    2074:	f8ad 6006 	strh.w	r6, [sp, #6]
	if ((eid = plugins [s->attpattern.b.plugin]->tcv_frm (NULL, &ptrs))) {
    2078:	a901      	add	r1, sp, #4
    207a:	4798      	blx	r3
    207c:	b158      	cbz	r0, 2096 <tcv_wnps+0x5e>
		// Blocked by the plugin
		if (state != WNONE) {
    207e:	f64f 73ff 	movw	r3, #65535	; 0xffff
    2082:	429d      	cmp	r5, r3
    2084:	d102      	bne.n	208c <tcv_wnps+0x54>
			when (eid, state);
			release;
		}
		return NULL;
    2086:	2000      	movs	r0, #0
		b->attributes.b.urgent = 1;
	b->u.pointers.head = ptrs.head;
	b->u.pointers.tail = length;

	return (address) (b + 1);
}
    2088:	b003      	add	sp, #12
    208a:	bdf0      	pop	{r4, r5, r6, r7, pc}
			when (eid, state);
    208c:	4629      	mov	r1, r5
    208e:	f7ff fbbd 	bl	180c <__pi_wait>
			release;
    2092:	f7ff f94b 	bl	132c <__pi_release>
	sysassert (s->attpattern.b.queued == 0, "tcv18");
    2096:	7a3b      	ldrb	r3, [r7, #8]
    2098:	07db      	lsls	r3, r3, #31
    209a:	d501      	bpl.n	20a0 <tcv_wnps+0x68>
    209c:	4914      	ldr	r1, [pc, #80]	; (20f0 <tcv_wnps+0xb8>)
    209e:	e7d6      	b.n	204e <tcv_wnps+0x16>
	if ((b = apb (length + ptrs . head + ptrs . tail)) == NULL) {
    20a0:	f8bd 0004 	ldrh.w	r0, [sp, #4]
    20a4:	f8bd 3006 	ldrh.w	r3, [sp, #6]
    20a8:	b2a4      	uxth	r4, r4
    20aa:	4418      	add	r0, r3
    20ac:	4420      	add	r0, r4
    20ae:	b280      	uxth	r0, r0
    20b0:	f7ff fe4c 	bl	1d4c <apb>
    20b4:	b938      	cbnz	r0, 20c6 <tcv_wnps+0x8e>
		if (state != WNONE) {
    20b6:	f64f 73ff 	movw	r3, #65535	; 0xffff
    20ba:	429d      	cmp	r5, r3
    20bc:	d0e3      	beq.n	2086 <tcv_wnps+0x4e>
			tmwait (state);
    20be:	4628      	mov	r0, r5
    20c0:	f7ff fd88 	bl	1bd4 <__pi_waitmem>
    20c4:	e7e5      	b.n	2092 <tcv_wnps+0x5a>
	b->attributes = s->attpattern;
    20c6:	893b      	ldrh	r3, [r7, #8]
    20c8:	8143      	strh	r3, [r0, #10]
	if (urg)
    20ca:	b11e      	cbz	r6, 20d4 <tcv_wnps+0x9c>
		b->attributes.b.urgent = 1;
    20cc:	7a83      	ldrb	r3, [r0, #10]
    20ce:	f043 0304 	orr.w	r3, r3, #4
    20d2:	7283      	strb	r3, [r0, #10]
	b->u.pointers.head = ptrs.head;
    20d4:	f8bd 3004 	ldrh.w	r3, [sp, #4]
	b->u.pointers.tail = length;
    20d8:	8044      	strh	r4, [r0, #2]
	b->u.pointers.head = ptrs.head;
    20da:	8003      	strh	r3, [r0, #0]
	return (address) (b + 1);
    20dc:	300c      	adds	r0, #12
    20de:	e7d3      	b.n	2088 <tcv_wnps+0x50>
    20e0:	2000059c 	mulcs	r0, ip, r5
    20e4:	00004fcd 	andeq	r4, r0, sp, asr #31
    20e8:	200005e0 	andcs	r0, r0, r0, ror #11
    20ec:	00004fd3 	ldrdeq	r4, [r0], -r3
    20f0:	00004fd9 	ldrdeq	r4, [r0], -r9

000020f4 <tcv_read>:

__PUBLF (PicOSNode, int, tcv_read) (address p, byte *buf, int len) {
    20f4:	b538      	push	{r3, r4, r5, lr}
    20f6:	4604      	mov	r4, r0
/*
 * Extracts (up to) len bytes from the packet
 */
	hblock_t *b = header (p);

	if (len >= b->u.pointers.tail)
    20f8:	f834 5c0a 	ldrh.w	r5, [r4, #-10]
__PUBLF (PicOSNode, int, tcv_read) (address p, byte *buf, int len) {
    20fc:	4608      	mov	r0, r1
    20fe:	4295      	cmp	r5, r2
    2100:	bfa8      	it	ge
    2102:	4615      	movge	r5, r2
		len = b->u.pointers.tail;

	if (len > 0) {
    2104:	2d00      	cmp	r5, #0
    2106:	dd10      	ble.n	212a <tcv_read+0x36>
		memcpy ((char*)buf, ((char*)p) + b->u.pointers.head, len);
    2108:	f834 1c0c 	ldrh.w	r1, [r4, #-12]
    210c:	462a      	mov	r2, r5
    210e:	4421      	add	r1, r4
    2110:	f7ff fc0d 	bl	192e <__pi_memcpy>
		b->u.pointers.tail -= len;
    2114:	f834 2c0a 	ldrh.w	r2, [r4, #-10]
    2118:	b2ab      	uxth	r3, r5
    211a:	1ad2      	subs	r2, r2, r3
    211c:	f824 2c0a 	strh.w	r2, [r4, #-10]
		b->u.pointers.head += len;
    2120:	f834 2c0c 	ldrh.w	r2, [r4, #-12]
    2124:	4413      	add	r3, r2
    2126:	f824 3c0c 	strh.w	r3, [r4, #-12]
	}

	return len;
}
    212a:	4628      	mov	r0, r5
    212c:	bd38      	pop	{r3, r4, r5, pc}
	...

00002130 <tcvp_control>:
	           /* ================================ */
	           /* Functions callable by the plugin */
	           /* ================================ */
/* ---------------------------------------------------------------------- */

__PUBLF (PicOSNode, int, tcvp_control) (int phy, int opt, address arg) {
    2130:	4603      	mov	r3, r0
/*
 * Plugin version of interface control
 */
	verify_fph (phy, "tcv23");
    2132:	2b03      	cmp	r3, #3
__PUBLF (PicOSNode, int, tcvp_control) (int phy, int opt, address arg) {
    2134:	4608      	mov	r0, r1
    2136:	b510      	push	{r4, lr}
    2138:	4611      	mov	r1, r2
	verify_fph (phy, "tcv23");
    213a:	d803      	bhi.n	2144 <tcvp_control+0x14>
    213c:	4a05      	ldr	r2, [pc, #20]	; (2154 <tcvp_control+0x24>)
    213e:	f852 3023 	ldr.w	r3, [r2, r3, lsl #2]
    2142:	b91b      	cbnz	r3, 214c <tcvp_control+0x1c>
    2144:	200a      	movs	r0, #10
    2146:	4904      	ldr	r1, [pc, #16]	; (2158 <tcvp_control+0x28>)
    2148:	f7fe fd32 	bl	bb0 <__pi_syserror>
	return (physical [phy]) (opt, arg);
}
    214c:	e8bd 4010 	ldmia.w	sp!, {r4, lr}
	return (physical [phy]) (opt, arg);
    2150:	4718      	bx	r3
    2152:	bf00      	nop
    2154:	200005c8 	andcs	r0, r0, r8, asr #11
    2158:	00004fdf 	ldrdeq	r4, [r0], -pc	; <UNPREDICTABLE>

0000215c <tcv_control>:
__PUBLF (PicOSNode, int, tcv_control) (int fd, int opt, address arg) {
    215c:	b508      	push	{r3, lr}
	if (opt < 0) {
    215e:	1e0b      	subs	r3, r1, #0
    2160:	da11      	bge.n	2186 <tcv_control+0x2a>
		if (fd < 0)
    2162:	2800      	cmp	r0, #0
    2164:	db1f      	blt.n	21a6 <tcv_control+0x4a>
		if (opt == PHYSOPT_PLUGINFO) {
    2166:	3301      	adds	r3, #1
    2168:	d107      	bne.n	217a <tcv_control+0x1e>
			if (fd >= TCV_MAX_PLUGS)
    216a:	2802      	cmp	r0, #2
    216c:	dc1b      	bgt.n	21a6 <tcv_control+0x4a>
			if ((p = plugins [fd]) == NULL)
    216e:	4b0f      	ldr	r3, [pc, #60]	; (21ac <tcv_control+0x50>)
    2170:	f853 0020 	ldr.w	r0, [r3, r0, lsl #2]
    2174:	b100      	cbz	r0, 2178 <tcv_control+0x1c>
			return p->tcv_info;
    2176:	69c0      	ldr	r0, [r0, #28]
}
    2178:	bd08      	pop	{r3, pc}
		if (fd >= TCV_MAX_PHYS)
    217a:	2802      	cmp	r0, #2
    217c:	dc13      	bgt.n	21a6 <tcv_control+0x4a>
		return physinfo [fd];
    217e:	4b0c      	ldr	r3, [pc, #48]	; (21b0 <tcv_control+0x54>)
    2180:	f853 0020 	ldr.w	r0, [r3, r0, lsl #2]
    2184:	e7f8      	b.n	2178 <tcv_control+0x1c>
	verify_fds (fd, "tcv22");
    2186:	2808      	cmp	r0, #8
    2188:	d803      	bhi.n	2192 <tcv_control+0x36>
    218a:	4b0a      	ldr	r3, [pc, #40]	; (21b4 <tcv_control+0x58>)
    218c:	f853 3020 	ldr.w	r3, [r3, r0, lsl #2]
    2190:	b91b      	cbnz	r3, 219a <tcv_control+0x3e>
    2192:	200a      	movs	r0, #10
    2194:	4908      	ldr	r1, [pc, #32]	; (21b8 <tcv_control+0x5c>)
    2196:	f7fe fd0b 	bl	bb0 <__pi_syserror>
	return tcvp_control (descriptors [fd] -> attpattern.b.phys, opt, arg);
    219a:	7a58      	ldrb	r0, [r3, #9]
}
    219c:	e8bd 4008 	ldmia.w	sp!, {r3, lr}
	return tcvp_control (descriptors [fd] -> attpattern.b.phys, opt, arg);
    21a0:	0940      	lsrs	r0, r0, #5
    21a2:	f7ff bfc5 	b.w	2130 <tcvp_control>
			return 0;
    21a6:	2000      	movs	r0, #0
    21a8:	e7e6      	b.n	2178 <tcv_control+0x1c>
    21aa:	bf00      	nop
    21ac:	200005e0 	andcs	r0, r0, r0, ror #11
    21b0:	200005d4 	ldrdcs	r0, [r0], -r4
    21b4:	2000059c 	mulcs	r0, ip, r5
    21b8:	00004fe5 	andeq	r4, r0, r5, ror #31

000021bc <tcvp_new>:
 * Plugin-visible dispose
 */
	dispose (header (p), dsp);
}

__PUBLF (PicOSNode, address, tcvp_new) (int size, int dsp, int ses) {
    21bc:	b5f8      	push	{r3, r4, r5, r6, r7, lr}
    21be:	b280      	uxth	r0, r0
    21c0:	4615      	mov	r5, r2
/*
 * Create a new packet with attributes inherited from the session
 */
	hblock_t *p;

	if (dsp != TCV_DSP_PASS) {
    21c2:	460e      	mov	r6, r1
    21c4:	b309      	cbz	r1, 220a <tcvp_new+0x4e>

		/* Session must be defined for that */
		if (ses == NONE)
    21c6:	1c53      	adds	r3, r2, #1
    21c8:	d103      	bne.n	21d2 <tcvp_new+0x16>
			syserror (EREQPAR, "tcv26");
    21ca:	2003      	movs	r0, #3
    21cc:	4912      	ldr	r1, [pc, #72]	; (2218 <tcvp_new+0x5c>)
		verify_fds (ses, "tcv27");
    21ce:	f7fe fcef 	bl	bb0 <__pi_syserror>
    21d2:	2a08      	cmp	r2, #8
    21d4:	d803      	bhi.n	21de <tcvp_new+0x22>
    21d6:	4f11      	ldr	r7, [pc, #68]	; (221c <tcvp_new+0x60>)
    21d8:	f857 3022 	ldr.w	r3, [r7, r2, lsl #2]
    21dc:	b913      	cbnz	r3, 21e4 <tcvp_new+0x28>
    21de:	200a      	movs	r0, #10
    21e0:	490f      	ldr	r1, [pc, #60]	; (2220 <tcvp_new+0x64>)
    21e2:	e7f4      	b.n	21ce <tcvp_new+0x12>
			TCV_LIMIT_XMT)) {
		       		// Drop
		    	   	return NULL;
		}
#endif
		if ((p = apb (size)) != NULL) {
    21e4:	f7ff fdb2 	bl	1d4c <apb>
    21e8:	4604      	mov	r4, r0
    21ea:	b908      	cbnz	r0, 21f0 <tcvp_new+0x34>
			/* If you accidentally call tcv_endp on it */
			p->attributes.b.outgoing = 0;
			dispose (p, dsp);
			return (address)(p + 1);
		}
		return NULL;
    21ec:	2000      	movs	r0, #0

	if ((p = apb (size)) != NULL)
		return (address)(p + 1);
	else
		return NULL;
}
    21ee:	bdf8      	pop	{r3, r4, r5, r6, r7, pc}
			p->attributes = descriptors [ses] -> attpattern;
    21f0:	f857 3025 	ldr.w	r3, [r7, r5, lsl #2]
			dispose (p, dsp);
    21f4:	4631      	mov	r1, r6
			p->attributes = descriptors [ses] -> attpattern;
    21f6:	891b      	ldrh	r3, [r3, #8]
    21f8:	8143      	strh	r3, [r0, #10]
			p->attributes.b.outgoing = 0;
    21fa:	f36f 0341 	bfc	r3, #1, #1
    21fe:	7283      	strb	r3, [r0, #10]
			dispose (p, dsp);
    2200:	f7ff fdea 	bl	1dd8 <dispose>
			return (address)(p + 1);
    2204:	f104 000c 	add.w	r0, r4, #12
    2208:	e7f1      	b.n	21ee <tcvp_new+0x32>
	if ((p = apb (size)) != NULL)
    220a:	f7ff fd9f 	bl	1d4c <apb>
    220e:	2800      	cmp	r0, #0
    2210:	d0ec      	beq.n	21ec <tcvp_new+0x30>
		return (address)(p + 1);
    2212:	300c      	adds	r0, #12
    2214:	e7eb      	b.n	21ee <tcvp_new+0x32>
    2216:	bf00      	nop
    2218:	00004feb 	andeq	r4, r0, fp, ror #31
    221c:	2000059c 	mulcs	r0, ip, r5
    2220:	00004ff1 	strdeq	r4, [r0], -r1

00002224 <tcvphy_reg>:
 * points to a function that controls (i.e., changes the options of) the
 * interface.
 */
	qhead_t *q;

	if (phy < 0 || phy >= TCV_MAX_PHYS || physical [phy] != NULL)
    2224:	2802      	cmp	r0, #2
__PUBLF (PicOSNode, int, tcvphy_reg) (int phy, ctrlfun_t ps, int info) {
    2226:	b510      	push	{r4, lr}
    2228:	4604      	mov	r4, r0
	if (phy < 0 || phy >= TCV_MAX_PHYS || physical [phy] != NULL)
    222a:	d803      	bhi.n	2234 <tcvphy_reg+0x10>
    222c:	4b0c      	ldr	r3, [pc, #48]	; (2260 <tcvphy_reg+0x3c>)
    222e:	f853 0020 	ldr.w	r0, [r3, r0, lsl #2]
    2232:	b118      	cbz	r0, 223c <tcvphy_reg+0x18>
		syserror (EREQPAR, "tcv28");
    2234:	2003      	movs	r0, #3
    2236:	490b      	ldr	r1, [pc, #44]	; (2264 <tcvphy_reg+0x40>)
	physical [phy] = ps;
	physinfo [phy] = info;

	oqueues [phy] = q = (qhead_t*) q_malloc (sizeof (qhead_t));
	if (q == NULL)
		syserror (EMALLOC, "tcv29");
    2238:	f7fe fcba 	bl	bb0 <__pi_syserror>
	physical [phy] = ps;
    223c:	f843 1024 	str.w	r1, [r3, r4, lsl #2]
	physinfo [phy] = info;
    2240:	4b09      	ldr	r3, [pc, #36]	; (2268 <tcvphy_reg+0x44>)
	oqueues [phy] = q = (qhead_t*) q_malloc (sizeof (qhead_t));
    2242:	2008      	movs	r0, #8
	physinfo [phy] = info;
    2244:	f843 2024 	str.w	r2, [r3, r4, lsl #2]
	oqueues [phy] = q = (qhead_t*) q_malloc (sizeof (qhead_t));
    2248:	f7ff fc56 	bl	1af8 <__pi_malloc>
    224c:	4a07      	ldr	r2, [pc, #28]	; (226c <tcvphy_reg+0x48>)
    224e:	f842 0024 	str.w	r0, [r2, r4, lsl #2]
	if (q == NULL)
    2252:	b910      	cbnz	r0, 225a <tcvphy_reg+0x36>
		syserror (EMALLOC, "tcv29");
    2254:	2006      	movs	r0, #6
    2256:	4906      	ldr	r1, [pc, #24]	; (2270 <tcvphy_reg+0x4c>)
    2258:	e7ee      	b.n	2238 <tcvphy_reg+0x14>
	q_init (q);
    225a:	e9c0 0000 	strd	r0, r0, [r0]
	/*
	 * Queue event identifier (which happens to be the queue pointer
	 * in disguise).
	 */
	return ptrtoint (q);
}
    225e:	bd10      	pop	{r4, pc}
    2260:	200005c8 	andcs	r0, r0, r8, asr #11
    2264:	00004ff7 	strdeq	r4, [r0], -r7
    2268:	200005d4 	ldrdcs	r0, [r0], -r4
    226c:	200005bc 			; <UNDEFINED> instruction: 0x200005bc
    2270:	00004ffd 	strdeq	r4, [r0], -sp

00002274 <tcvphy_rcv>:

__PUBLF (PicOSNode, int, tcvphy_rcv) (int phy, address p, int len) {
    2274:	e92d 4ff0 	stmdb	sp!, {r4, r5, r6, r7, r8, r9, sl, fp, lr}
 */
	int plg, dsp, ses;
	tcvadp_t ap;
	address c;

	verify_fph (phy, "tcv30");
    2278:	2803      	cmp	r0, #3
__PUBLF (PicOSNode, int, tcvphy_rcv) (int phy, address p, int len) {
    227a:	4605      	mov	r5, r0
    227c:	460f      	mov	r7, r1
    227e:	4614      	mov	r4, r2
    2280:	b085      	sub	sp, #20
	verify_fph (phy, "tcv30");
    2282:	d803      	bhi.n	228c <tcvphy_rcv+0x18>
    2284:	4b1e      	ldr	r3, [pc, #120]	; (2300 <tcvphy_rcv+0x8c>)
    2286:	f853 3020 	ldr.w	r3, [r3, r0, lsl #2]
    228a:	b91b      	cbnz	r3, 2294 <tcvphy_rcv+0x20>
    228c:	491d      	ldr	r1, [pc, #116]	; (2304 <tcvphy_rcv+0x90>)
		 * (or fall back) plugins to be used when none of the
		 * "specific" plugins claims the packet.
		 */
		if (plugins [plg] == NULL)
			continue;
		sysassert (plugins [plg] -> tcv_rcv != NULL, "tcv31");
    228e:	200a      	movs	r0, #10
    2290:	f7fe fc8e 	bl	bb0 <__pi_syserror>
    2294:	4e1c      	ldr	r6, [pc, #112]	; (2308 <tcvphy_rcv+0x94>)
		if ((dsp = plugins [plg] -> tcv_rcv (phy, p, len, &ses, &ap)) !=
    2296:	f10d 080c 	add.w	r8, sp, #12
    229a:	f1a6 0a08 	sub.w	sl, r6, #8
		if (plugins [plg] == NULL)
    229e:	6833      	ldr	r3, [r6, #0]
    22a0:	46b1      	mov	r9, r6
    22a2:	3e04      	subs	r6, #4
    22a4:	b92b      	cbnz	r3, 22b2 <tcvphy_rcv+0x3e>
	for (plg = TCV_MAX_PLUGS-1; plg >= 0; plg--) {
    22a6:	45ca      	cmp	sl, r9
    22a8:	d1f9      	bne.n	229e <tcvphy_rcv+0x2a>
	if (dsp == TCV_DSP_PASS || dsp == TCV_DSP_DROP) {
		/*
		 * Either no one is claiming the packet or the claimant says
		 * we should drop it.
		 */
		return 0;
    22aa:	2000      	movs	r0, #0
		return 0;

	memcpy ((char*)c, ((char*)p) + ap.head, len);

	return 1;
}
    22ac:	b005      	add	sp, #20
    22ae:	e8bd 8ff0 	ldmia.w	sp!, {r4, r5, r6, r7, r8, r9, sl, fp, pc}
		sysassert (plugins [plg] -> tcv_rcv != NULL, "tcv31");
    22b2:	f8d3 b008 	ldr.w	fp, [r3, #8]
    22b6:	f1bb 0f00 	cmp.w	fp, #0
    22ba:	d101      	bne.n	22c0 <tcvphy_rcv+0x4c>
    22bc:	4913      	ldr	r1, [pc, #76]	; (230c <tcvphy_rcv+0x98>)
    22be:	e7e6      	b.n	228e <tcvphy_rcv+0x1a>
		if ((dsp = plugins [plg] -> tcv_rcv (phy, p, len, &ses, &ap)) !=
    22c0:	4639      	mov	r1, r7
    22c2:	4622      	mov	r2, r4
    22c4:	4628      	mov	r0, r5
    22c6:	f8cd 8000 	str.w	r8, [sp]
    22ca:	ab02      	add	r3, sp, #8
    22cc:	47d8      	blx	fp
    22ce:	4601      	mov	r1, r0
    22d0:	2800      	cmp	r0, #0
    22d2:	d0e8      	beq.n	22a6 <tcvphy_rcv+0x32>
	if (dsp == TCV_DSP_PASS || dsp == TCV_DSP_DROP) {
    22d4:	2801      	cmp	r0, #1
    22d6:	d0e8      	beq.n	22aa <tcvphy_rcv+0x36>
	len -= (ap.head + ap.tail);
    22d8:	f8bd 200c 	ldrh.w	r2, [sp, #12]
    22dc:	f8bd 300e 	ldrh.w	r3, [sp, #14]
    22e0:	441a      	add	r2, r3
    22e2:	1aa4      	subs	r4, r4, r2
	if ((c = tcvp_new (len, dsp, ses)) == NULL)
    22e4:	4620      	mov	r0, r4
    22e6:	9a02      	ldr	r2, [sp, #8]
    22e8:	f7ff ff68 	bl	21bc <tcvp_new>
    22ec:	2800      	cmp	r0, #0
    22ee:	d0dc      	beq.n	22aa <tcvphy_rcv+0x36>
	memcpy ((char*)c, ((char*)p) + ap.head, len);
    22f0:	f8bd 100c 	ldrh.w	r1, [sp, #12]
    22f4:	4622      	mov	r2, r4
    22f6:	4439      	add	r1, r7
    22f8:	f7ff fb19 	bl	192e <__pi_memcpy>
	return 1;
    22fc:	2001      	movs	r0, #1
    22fe:	e7d5      	b.n	22ac <tcvphy_rcv+0x38>
    2300:	200005c8 	andcs	r0, r0, r8, asr #11
    2304:	00005003 	andeq	r5, r0, r3
    2308:	200005e8 	andcs	r0, r0, r8, ror #11
    230c:	00005009 	andeq	r5, r0, r9

00002310 <tcvphy_get>:
 * Returns the packet pointer and its length.
 */
	qhead_t	*oq;
	hblock_t *b;

	verify_fph (phy, "tcv32");
    2310:	2803      	cmp	r0, #3
__PUBLF (PicOSNode, address, tcvphy_get) (int phy, int *len) {
    2312:	b508      	push	{r3, lr}
	verify_fph (phy, "tcv32");
    2314:	d803      	bhi.n	231e <tcvphy_get+0xe>
    2316:	4b0b      	ldr	r3, [pc, #44]	; (2344 <tcvphy_get+0x34>)
    2318:	f853 3020 	ldr.w	r3, [r3, r0, lsl #2]
    231c:	b91b      	cbnz	r3, 2326 <tcvphy_get+0x16>
    231e:	200a      	movs	r0, #10
    2320:	4909      	ldr	r1, [pc, #36]	; (2348 <tcvphy_get+0x38>)
    2322:	f7fe fc45 	bl	bb0 <__pi_syserror>

	oq = oqueues [phy];
    2326:	4b09      	ldr	r3, [pc, #36]	; (234c <tcvphy_get+0x3c>)
    2328:	f853 3020 	ldr.w	r3, [r3, r0, lsl #2]
	b = q_first (oq);
    232c:	6818      	ldr	r0, [r3, #0]
	if (q_end (b, oq)) {
    232e:	4283      	cmp	r3, r0
    2330:	d005      	beq.n	233e <tcvphy_get+0x2e>
		/* The queue is empty */
		return NULL;
	}

	*len = b->length;
    2332:	8903      	ldrh	r3, [r0, #8]
    2334:	600b      	str	r3, [r1, #0]
	deq (b);	// Dequeue the packet ...
    2336:	f7ff fd14 	bl	1d62 <deq>
	deqtm (b);	// ... and clear its timer
	return (address) (b + 1);
    233a:	300c      	adds	r0, #12
}
    233c:	bd08      	pop	{r3, pc}
		return NULL;
    233e:	2000      	movs	r0, #0
    2340:	e7fc      	b.n	233c <tcvphy_get+0x2c>
    2342:	bf00      	nop
    2344:	200005c8 	andcs	r0, r0, r8, asr #11
    2348:	0000500f 	andeq	r5, r0, pc
    234c:	200005bc 			; <UNDEFINED> instruction: 0x200005bc

00002350 <tcvphy_top>:
 * Returns the pointer to the first outgoing packet.
 */
	qhead_t *oq;
	hblock_t *b;

	verify_fph (phy, "tcv33");
    2350:	2803      	cmp	r0, #3
__PUBLF (PicOSNode, address, tcvphy_top) (int phy) {
    2352:	b508      	push	{r3, lr}
	verify_fph (phy, "tcv33");
    2354:	d803      	bhi.n	235e <tcvphy_top+0xe>
    2356:	4b08      	ldr	r3, [pc, #32]	; (2378 <tcvphy_top+0x28>)
    2358:	f853 3020 	ldr.w	r3, [r3, r0, lsl #2]
    235c:	b91b      	cbnz	r3, 2366 <tcvphy_top+0x16>
    235e:	200a      	movs	r0, #10
    2360:	4906      	ldr	r1, [pc, #24]	; (237c <tcvphy_top+0x2c>)
    2362:	f7fe fc25 	bl	bb0 <__pi_syserror>

	oq = oqueues [phy];
    2366:	4b06      	ldr	r3, [pc, #24]	; (2380 <tcvphy_top+0x30>)
    2368:	f853 3020 	ldr.w	r3, [r3, r0, lsl #2]
	b = q_first (oq);
    236c:	6818      	ldr	r0, [r3, #0]
	if (q_end (b, oq))
    236e:	4283      	cmp	r3, r0
		return NULL;
    2370:	bf0c      	ite	eq
    2372:	2000      	moveq	r0, #0

	return (address)(b + 1);
    2374:	300c      	addne	r0, #12
}
    2376:	bd08      	pop	{r3, pc}
    2378:	200005c8 	andcs	r0, r0, r8, asr #11
    237c:	00005015 	andeq	r5, r0, r5, lsl r0
    2380:	200005bc 			; <UNDEFINED> instruction: 0x200005bc

00002384 <tcvphy_end>:

__PUBLF (PicOSNode, void, tcvphy_end) (address pkt) {
    2384:	b510      	push	{r4, lr}
/*
 * Marks the end of packet transmission
 */
	hblock_t *b = header (pkt);

	verify_plg (b, tcv_xmt, "tcv34");
    2386:	f810 3c01 	ldrb.w	r3, [r0, #-1]
	hblock_t *b = header (pkt);
    238a:	f1a0 040c 	sub.w	r4, r0, #12
	verify_plg (b, tcv_xmt, "tcv34");
    238e:	f3c3 0382 	ubfx	r3, r3, #2, #3
    2392:	2b02      	cmp	r3, #2
    2394:	d805      	bhi.n	23a2 <tcvphy_end+0x1e>
    2396:	4a08      	ldr	r2, [pc, #32]	; (23b8 <tcvphy_end+0x34>)
    2398:	f852 3023 	ldr.w	r3, [r2, r3, lsl #2]
    239c:	b10b      	cbz	r3, 23a2 <tcvphy_end+0x1e>
    239e:	695b      	ldr	r3, [r3, #20]
    23a0:	b91b      	cbnz	r3, 23aa <tcvphy_end+0x26>
    23a2:	200a      	movs	r0, #10
    23a4:	4905      	ldr	r1, [pc, #20]	; (23bc <tcvphy_end+0x38>)
    23a6:	f7fe fc03 	bl	bb0 <__pi_syserror>
	dispose (b, plugins [b->attributes.b.plugin] ->
    23aa:	4798      	blx	r3
    23ac:	4601      	mov	r1, r0
    23ae:	4620      	mov	r0, r4
		tcv_xmt (pkt));
}
    23b0:	e8bd 4010 	ldmia.w	sp!, {r4, lr}
	dispose (b, plugins [b->attributes.b.plugin] ->
    23b4:	f7ff bd10 	b.w	1dd8 <dispose>
    23b8:	200005e0 	andcs	r0, r0, r0, ror #11
    23bc:	0000501b 	andeq	r5, r0, fp, lsl r0

000023c0 <tcv_init>:
	tcv_tservice = create TCVTimerService;
	tcv_tservice -> _pp_apid_ ();
#endif	/* __SMURPH__ */

#endif	/* TCV_TIMERS */
}
    23c0:	4770      	bx	lr

000023c2 <NmiSR>:
NmiSRHandler(void)
{
    //
    // Enter an infinite loop.
    //
    while(1)
    23c2:	e7fe      	b.n	23c2 <NmiSR>

000023c4 <FaultISR>:
FaultISRHandler(void)
{
    //
    // Enter an infinite loop.
    //
    while(1)
    23c4:	e7fe      	b.n	23c4 <FaultISR>

000023c6 <AONIntHandler>:
IntDefaultHandler(void)
{
    //
    // Go into an infinite loop.
    //
    while(1)
    23c6:	e7fe      	b.n	23c6 <AONIntHandler>

000023c8 <ResetISR>:
{
    23c8:	b508      	push	{r3, lr}
    SetupTrimDevice();
    23ca:	f001 fd15 	bl	3df8 <NOROM_SetupTrimDevice>
    for(pui32Dest = &_data; pui32Dest < &_edata; )
    23ce:	4b0c      	ldr	r3, [pc, #48]	; (2400 <zero_loop+0x20>)
    pui32Src = &_etext;
    23d0:	4a0c      	ldr	r2, [pc, #48]	; (2404 <zero_loop+0x24>)
    for(pui32Dest = &_data; pui32Dest < &_edata; )
    23d2:	490d      	ldr	r1, [pc, #52]	; (2408 <zero_loop+0x28>)
    23d4:	428b      	cmp	r3, r1
    23d6:	d30d      	bcc.n	23f4 <zero_loop+0x14>
    __asm("    ldr     r0, =_bss\n"
    23d8:	480c      	ldr	r0, [pc, #48]	; (240c <zero_loop+0x2c>)
    23da:	490d      	ldr	r1, [pc, #52]	; (2410 <zero_loop+0x30>)
    23dc:	f04f 0200 	mov.w	r2, #0

000023e0 <zero_loop>:
    23e0:	4288      	cmp	r0, r1
    23e2:	bfb8      	it	lt
    23e4:	f840 2b04 	strlt.w	r2, [r0], #4
    23e8:	dbfa      	blt.n	23e0 <zero_loop>
   main();
    23ea:	f7ff f8e3 	bl	15b4 <main>
    FaultISR();
    23ee:	f7ff ffe9 	bl	23c4 <FaultISR>
}
    23f2:	bd08      	pop	{r3, pc}
        *pui32Dest++ = *pui32Src++;
    23f4:	f852 0b04 	ldr.w	r0, [r2], #4
    23f8:	f843 0b04 	str.w	r0, [r3], #4
    23fc:	e7ea      	b.n	23d4 <ResetISR+0xc>
    23fe:	bf00      	nop
    2400:	20000000 	andcs	r0, r0, r0
    2404:	00005a24 	andeq	r5, r0, r4, lsr #20
    2408:	20000540 	andcs	r0, r0, r0, asr #10
    240c:	20000540 	andcs	r0, r0, r0, asr #10
    2410:	200006d4 	ldrdcs	r0, [r0], -r4

00002414 <get_byte>:

static word	left;

// ============================================================================

static byte get_byte () {
    2414:	2308      	movs	r3, #8

	int i;
	byte b;

	for (b = 0, i = 0; i < 8; i++) {
    2416:	2000      	movs	r0, #0
    HWREG( GPIO_BASE + GPIO_O_DOUTSET31_0 ) = ( 1 << dioNumber );
    2418:	f44f 6280 	mov.w	r2, #1024	; 0x400
static byte get_byte () {
    241c:	b570      	push	{r4, r5, r6, lr}
    HWREG( GPIO_BASE + GPIO_O_DOUTCLR31_0 ) = ( 1 << dioNumber );
    241e:	4907      	ldr	r1, [pc, #28]	; (243c <get_byte+0x28>)
    return (( HWREG( GPIO_BASE + GPIO_O_DIN31_0 ) >> dioNumber ) & 1 );
    2420:	4d07      	ldr	r5, [pc, #28]	; (2440 <get_byte+0x2c>)
    HWREG( GPIO_BASE + GPIO_O_DOUTSET31_0 ) = ( 1 << dioNumber );
    2422:	4c08      	ldr	r4, [pc, #32]	; (2444 <get_byte+0x30>)
    return (( HWREG( GPIO_BASE + GPIO_O_DIN31_0 ) >> dioNumber ) & 1 );
    2424:	682e      	ldr	r6, [r5, #0]
		b <<= 1;
    2426:	0040      	lsls	r0, r0, #1
		if (ee_inp)
    2428:	05f6      	lsls	r6, r6, #23
		b <<= 1;
    242a:	b2c0      	uxtb	r0, r0
			b |= 1;
    242c:	bf48      	it	mi
    242e:	f040 0001 	orrmi.w	r0, r0, #1
	for (b = 0, i = 0; i < 8; i++) {
    2432:	3b01      	subs	r3, #1
    HWREG( GPIO_BASE + GPIO_O_DOUTSET31_0 ) = ( 1 << dioNumber );
    2434:	6022      	str	r2, [r4, #0]
    HWREG( GPIO_BASE + GPIO_O_DOUTCLR31_0 ) = ( 1 << dioNumber );
    2436:	600a      	str	r2, [r1, #0]
    2438:	d1f4      	bne.n	2424 <get_byte+0x10>
		ee_clkh;
		ee_clkl;
	}

	return b;
}
    243a:	bd70      	pop	{r4, r5, r6, pc}
    243c:	400220a0 	andmi	r2, r2, r0, lsr #1
    2440:	400220c0 	andmi	r2, r2, r0, asr #1
    2444:	40022090 	mulmi	r2, r0, r0

00002448 <put_byte>:

static void put_byte (byte b) {
    2448:	b530      	push	{r4, r5, lr}
    244a:	2308      	movs	r3, #8
    244c:	f44f 7500 	mov.w	r5, #512	; 0x200
    HWREG( GPIO_BASE + GPIO_O_DOUTSET31_0 ) = ( 1 << dioNumber );
    2450:	f44f 6180 	mov.w	r1, #1024	; 0x400
    2454:	4c06      	ldr	r4, [pc, #24]	; (2470 <put_byte+0x28>)
    2456:	4a07      	ldr	r2, [pc, #28]	; (2474 <put_byte+0x2c>)

	int i;

	for (i = 0; i < 8; i++) {
		if (b & 0x80)
    2458:	f010 0f80 	tst.w	r0, #128	; 0x80
    245c:	bf14      	ite	ne
    245e:	6025      	strne	r5, [r4, #0]
    HWREG( GPIO_BASE + GPIO_O_DOUTCLR31_0 ) = ( 1 << dioNumber );
    2460:	6015      	streq	r5, [r2, #0]
			ee_outh;
		else
			ee_outl;
		ee_clkh;
		ee_clkl;
		b <<= 1;
    2462:	0040      	lsls	r0, r0, #1
	for (i = 0; i < 8; i++) {
    2464:	3b01      	subs	r3, #1
    HWREG( GPIO_BASE + GPIO_O_DOUTSET31_0 ) = ( 1 << dioNumber );
    2466:	6021      	str	r1, [r4, #0]
		b <<= 1;
    2468:	b2c0      	uxtb	r0, r0
    HWREG( GPIO_BASE + GPIO_O_DOUTCLR31_0 ) = ( 1 << dioNumber );
    246a:	6011      	str	r1, [r2, #0]
	for (i = 0; i < 8; i++) {
    246c:	d1f4      	bne.n	2458 <put_byte+0x10>
	}
}
    246e:	bd30      	pop	{r4, r5, pc}
    2470:	40022090 	mulmi	r2, r0, r0
    2474:	400220a0 	andmi	r2, r2, r0, lsr #1

00002478 <cmd_0>:
    HWREGBITW( GPIO_BASE + GPIO_O_DOE31_0, dioNumber ) = outputEnableValue;
    2478:	2301      	movs	r3, #1

// ============================================================================

static void cmd_0 (byte cmd) {
    247a:	b510      	push	{r4, lr}
    247c:	4c03      	ldr	r4, [pc, #12]	; (248c <cmd_0+0x14>)
    247e:	6023      	str	r3, [r4, #0]

	ee_start;
	put_byte (cmd);
    2480:	f7ff ffe2 	bl	2448 <put_byte>
    2484:	2300      	movs	r3, #0
    2486:	6023      	str	r3, [r4, #0]
	ee_stop;
}
    2488:	bd10      	pop	{r4, pc}
    248a:	bf00      	nop
    248c:	42441a50 	submi	r1, r4, #80, 20	; 0x50000

00002490 <wwait>:
	r = get_byte ();
	ee_stop;
	return r;
}

static void wwait (word st, word del) {
    2490:	e92d 41f0 	stmdb	sp!, {r4, r5, r6, r7, r8, lr}
    2494:	4604      	mov	r4, r0
    2496:	460d      	mov	r5, r1
    2498:	2701      	movs	r7, #1
//
// Wait for write to complete
//
	while (dopen && (rdsr () & 1)) {
    249a:	f8df 8044 	ldr.w	r8, [pc, #68]	; 24e0 <wwait+0x50>
    249e:	4e0f      	ldr	r6, [pc, #60]	; (24dc <wwait+0x4c>)
    24a0:	f898 3000 	ldrb.w	r3, [r8]
    24a4:	b14b      	cbz	r3, 24ba <wwait+0x2a>
	put_byte (CMD_RDSR);
    24a6:	2005      	movs	r0, #5
    24a8:	6037      	str	r7, [r6, #0]
    24aa:	f7ff ffcd 	bl	2448 <put_byte>
	r = get_byte ();
    24ae:	f7ff ffb1 	bl	2414 <get_byte>
    24b2:	2300      	movs	r3, #0
    24b4:	6033      	str	r3, [r6, #0]
	while (dopen && (rdsr () & 1)) {
    24b6:	07c3      	lsls	r3, r0, #31
    24b8:	d401      	bmi.n	24be <wwait+0x2e>
		else {
			delay (del, st);
			release;
		}
	}
}
    24ba:	e8bd 81f0 	ldmia.w	sp!, {r4, r5, r6, r7, r8, pc}
		if (st == WNONE)
    24be:	f64f 73ff 	movw	r3, #65535	; 0xffff
    24c2:	429c      	cmp	r4, r3
    24c4:	d103      	bne.n	24ce <wwait+0x3e>
			mdelay (1);
    24c6:	2001      	movs	r0, #1
    24c8:	f7fe fb1e 	bl	b08 <mdelay>
    24cc:	e7e8      	b.n	24a0 <wwait+0x10>
			delay (del, st);
    24ce:	4621      	mov	r1, r4
    24d0:	4628      	mov	r0, r5
    24d2:	f7ff f9e1 	bl	1898 <delay>
			release;
    24d6:	f7fe ff29 	bl	132c <__pi_release>
    24da:	bf00      	nop
    24dc:	42441a50 	submi	r1, r4, #80, 20	; 0x50000
    24e0:	200005ec 	andcs	r0, r0, ip, ror #11

000024e4 <ready>:
		dopen = 0;
		ee_bring_down;
	}
}

static void ready () {
    24e4:	b5f8      	push	{r3, r4, r5, r6, r7, lr}
//
// Called before a new operation to make sure the chip is ready
//
	if (dopen) {
    24e6:	4d0c      	ldr	r5, [pc, #48]	; (2518 <ready+0x34>)
    24e8:	782f      	ldrb	r7, [r5, #0]
    24ea:	b147      	cbz	r7, 24fe <ready+0x1a>
		// The device is open
		wwait (WNONE, 1);
    24ec:	2101      	movs	r1, #1
    24ee:	f64f 70ff 	movw	r0, #65535	; 0xffff
    24f2:	f7ff ffcd 	bl	2490 <wwait>
	} else {
		copen ();
		dopen = DOPEN_TEMP;
	}

	dstat = 0;
    24f6:	2200      	movs	r2, #0
    24f8:	4b08      	ldr	r3, [pc, #32]	; (251c <ready+0x38>)
    24fa:	701a      	strb	r2, [r3, #0]
}
    24fc:	bdf8      	pop	{r3, r4, r5, r6, r7, pc}
    24fe:	2401      	movs	r4, #1
    2500:	4e07      	ldr	r6, [pc, #28]	; (2520 <ready+0x3c>)
	udelay (1);
    2502:	4620      	mov	r0, r4
    2504:	6034      	str	r4, [r6, #0]
    2506:	f7fe fae9 	bl	adc <udelay>
	udelay (1);
    250a:	4620      	mov	r0, r4
    250c:	6037      	str	r7, [r6, #0]
    250e:	f7fe fae5 	bl	adc <udelay>
		dopen = DOPEN_TEMP;
    2512:	2302      	movs	r3, #2
    2514:	702b      	strb	r3, [r5, #0]
    2516:	e7ee      	b.n	24f6 <ready+0x12>
    2518:	200005ec 	andcs	r0, r0, ip, ror #11
    251c:	200005ed 	andcs	r0, r0, sp, ror #11
    2520:	42441a50 	submi	r1, r4, #80, 20	; 0x50000

00002524 <cclose>:
static void cclose () {
    2524:	b510      	push	{r4, lr}
	if (dopen == DOPEN_TEMP) {
    2526:	4c07      	ldr	r4, [pc, #28]	; (2544 <cclose+0x20>)
    2528:	7823      	ldrb	r3, [r4, #0]
    252a:	2b02      	cmp	r3, #2
    252c:	d109      	bne.n	2542 <cclose+0x1e>
		wwait (WNONE, 1);
    252e:	2101      	movs	r1, #1
    2530:	f64f 70ff 	movw	r0, #65535	; 0xffff
    2534:	f7ff ffac 	bl	2490 <wwait>
	cmd_0 (CMD_DP);
    2538:	20b9      	movs	r0, #185	; 0xb9
    253a:	f7ff ff9d 	bl	2478 <cmd_0>
		dopen = 0;
    253e:	2300      	movs	r3, #0
    2540:	7023      	strb	r3, [r4, #0]
}
    2542:	bd10      	pop	{r4, pc}
    2544:	200005ec 	andcs	r0, r0, ip, ror #11

00002548 <ee_open>:

// ============================================================================

word ee_open () {
    2548:	b508      	push	{r3, lr}
//
// Open (for more than one operation)
//
	ready ();
    254a:	f7ff ffcb 	bl	24e4 <ready>
	dopen = DOPEN_PERM;
    254e:	2201      	movs	r2, #1
    2550:	4b01      	ldr	r3, [pc, #4]	; (2558 <ee_open+0x10>)
		ee_stop;
		diag ("ID: %x %x %x", r [0], r [1], r [2]);
	}
#endif
	return 0;
}
    2552:	2000      	movs	r0, #0
	dopen = DOPEN_PERM;
    2554:	701a      	strb	r2, [r3, #0]
}
    2556:	bd08      	pop	{r3, pc}
    2558:	200005ec 	andcs	r0, r0, ip, ror #11

0000255c <ee_close>:

void ee_close () {

	if (dopen) {
    255c:	4b03      	ldr	r3, [pc, #12]	; (256c <ee_close+0x10>)
    255e:	781a      	ldrb	r2, [r3, #0]
    2560:	b11a      	cbz	r2, 256a <ee_close+0xe>
		dopen = DOPEN_TEMP;
    2562:	2202      	movs	r2, #2
    2564:	701a      	strb	r2, [r3, #0]
		cclose ();
    2566:	f7ff bfdd 	b.w	2524 <cclose>
	}
}
    256a:	4770      	bx	lr
    256c:	200005ec 	andcs	r0, r0, ip, ror #11

00002570 <ser_out>:

//+++ "__outserial.c"

procname (__outserial);

int ser_out (word st, const char *m) {
    2570:	b5f8      	push	{r3, r4, r5, r6, r7, lr}
    2572:	4606      	mov	r6, r0

	int prcs;
	char *buf;

	if ((prcs = running (__outserial)) != 0) {
    2574:	4818      	ldr	r0, [pc, #96]	; (25d8 <ser_out+0x68>)
int ser_out (word st, const char *m) {
    2576:	460c      	mov	r4, r1
	if ((prcs = running (__outserial)) != 0) {
    2578:	f7ff f9aa 	bl	18d0 <running>
    257c:	b120      	cbz	r0, 2588 <ser_out+0x18>
		/* We have to wait */
		join (prcs, st);
    257e:	4631      	mov	r1, r6
    2580:	f7ff f978 	bl	1874 <__pi_join>
	if ((buf = (char*) umalloc (prcs)) == NULL) {
		/*
		 * We have to wait for memory
		 */
		umwait (st);
		release;
    2584:	f7fe fed2 	bl	132c <__pi_release>
	if (*m)
    2588:	7823      	ldrb	r3, [r4, #0]
    258a:	b163      	cbz	r3, 25a6 <ser_out+0x36>
		prcs = strlen (m) +1;
    258c:	4620      	mov	r0, r4
    258e:	f7ff f9b1 	bl	18f4 <__pi_strlen>
    2592:	1c45      	adds	r5, r0, #1
	if ((buf = (char*) umalloc (prcs)) == NULL) {
    2594:	b2a8      	uxth	r0, r5
    2596:	f7ff faaf 	bl	1af8 <__pi_malloc>
    259a:	4607      	mov	r7, r0
    259c:	b930      	cbnz	r0, 25ac <ser_out+0x3c>
		umwait (st);
    259e:	4630      	mov	r0, r6
    25a0:	f7ff fb18 	bl	1bd4 <__pi_waitmem>
    25a4:	e7ee      	b.n	2584 <ser_out+0x14>
		prcs =  m [1] + 3;
    25a6:	7865      	ldrb	r5, [r4, #1]
    25a8:	3503      	adds	r5, #3
    25aa:	e7f3      	b.n	2594 <ser_out+0x24>
	}

	if (*m)
    25ac:	7823      	ldrb	r3, [r4, #0]
    25ae:	b15b      	cbz	r3, 25c8 <ser_out+0x58>
		strcpy (buf, m);
    25b0:	4621      	mov	r1, r4
    25b2:	f7ff f9a6 	bl	1902 <__pi_strcpy>
	else
		memcpy (buf, m, prcs);

	if (runstrand (__outserial, buf) == 0) {
    25b6:	4639      	mov	r1, r7
    25b8:	4807      	ldr	r0, [pc, #28]	; (25d8 <ser_out+0x68>)
    25ba:	f7ff faf1 	bl	1ba0 <__pi_fork>
    25be:	b940      	cbnz	r0, 25d2 <ser_out+0x62>
		// fork has failed, deallocate buf
		ufree (buf);
    25c0:	4638      	mov	r0, r7
    25c2:	f7ff fa4d 	bl	1a60 <__pi_free>
		// and wait for a process slot
		npwait (st);
    25c6:	e7ea      	b.n	259e <ser_out+0x2e>
		memcpy (buf, m, prcs);
    25c8:	462a      	mov	r2, r5
    25ca:	4621      	mov	r1, r4
    25cc:	f7ff f9af 	bl	192e <__pi_memcpy>
    25d0:	e7f1      	b.n	25b6 <ser_out+0x46>
		release;
	}

	return 0;
}
    25d2:	2000      	movs	r0, #0
    25d4:	bdf8      	pop	{r3, r4, r5, r6, r7, pc}
    25d6:	bf00      	nop
    25d8:	0000307d 	andeq	r3, r0, sp, ror r0

000025dc <ser_in>:

extern char *__inpline;

procname (__inserial);

int ser_in (word st, char *buf, int len) {
    25dc:	b5f8      	push	{r3, r4, r5, r6, r7, lr}
    25de:	4604      	mov	r4, r0
    25e0:	460f      	mov	r7, r1
/* ======= */
/* Direct */
/* ====== */
	int prcs;

	if (len == 0)
    25e2:	4615      	mov	r5, r2
    25e4:	b37a      	cbz	r2, 2646 <ser_in+0x6a>
		// Just in case
		return 0;

	if (__inpline == NULL) {
    25e6:	4e19      	ldr	r6, [pc, #100]	; (264c <ser_in+0x70>)
    25e8:	6830      	ldr	r0, [r6, #0]
    25ea:	b988      	cbnz	r0, 2610 <ser_in+0x34>
		if ((prcs = running (__inserial)) == 0) {
    25ec:	4818      	ldr	r0, [pc, #96]	; (2650 <ser_in+0x74>)
    25ee:	f7ff f96f 	bl	18d0 <running>
    25f2:	b948      	cbnz	r0, 2608 <ser_in+0x2c>
			prcs = runthread (__inserial);
    25f4:	4601      	mov	r1, r0
    25f6:	4816      	ldr	r0, [pc, #88]	; (2650 <ser_in+0x74>)
    25f8:	f7ff fad2 	bl	1ba0 <__pi_fork>
			if (prcs == 0) {
    25fc:	b920      	cbnz	r0, 2608 <ser_in+0x2c>
				npwait (st);
    25fe:	4620      	mov	r0, r4
    2600:	f7ff fae8 	bl	1bd4 <__pi_waitmem>
				release;
			}
		}
		join (prcs, st);
		release;
    2604:	f7fe fe92 	bl	132c <__pi_release>
		join (prcs, st);
    2608:	4621      	mov	r1, r4
    260a:	f7ff f933 	bl	1874 <__pi_join>
    260e:	e7f9      	b.n	2604 <ser_in+0x28>
	}

	/* Input available */
	if (*__inpline == NULL) // bin cmd
    2610:	7803      	ldrb	r3, [r0, #0]
    2612:	b9a3      	cbnz	r3, 263e <ser_in+0x62>
		prcs = __inpline[1] + 3; // 0x00, len, 0x04
    2614:	7844      	ldrb	r4, [r0, #1]
    2616:	3403      	adds	r4, #3
	else
		prcs = strlen (__inpline);

	if (prcs >= len)
    2618:	42ac      	cmp	r4, r5
		prcs = len-1;
    261a:	bfa8      	it	ge
    261c:	f105 34ff 	addge.w	r4, r5, #4294967295	; 0xffffffff

	memcpy (buf, __inpline, prcs);
    2620:	4622      	mov	r2, r4
    2622:	4638      	mov	r0, r7
    2624:	6831      	ldr	r1, [r6, #0]
    2626:	f7ff f982 	bl	192e <__pi_memcpy>
	ufree (__inpline);
    262a:	6830      	ldr	r0, [r6, #0]
    262c:	f7ff fa18 	bl	1a60 <__pi_free>
	__inpline = NULL;
    2630:	2300      	movs	r3, #0
    2632:	6033      	str	r3, [r6, #0]
	if (*buf) // if it's NULL, it's a bin cmd
    2634:	783a      	ldrb	r2, [r7, #0]
    2636:	b102      	cbz	r2, 263a <ser_in+0x5e>
		buf [prcs] = '\0';
    2638:	553b      	strb	r3, [r7, r4]
	return prcs;
}
    263a:	4620      	mov	r0, r4
    263c:	bdf8      	pop	{r3, r4, r5, r6, r7, pc}
		prcs = strlen (__inpline);
    263e:	f7ff f959 	bl	18f4 <__pi_strlen>
    2642:	4604      	mov	r4, r0
    2644:	e7e8      	b.n	2618 <ser_in+0x3c>
		return 0;
    2646:	4614      	mov	r4, r2
    2648:	e7f7      	b.n	263a <ser_in+0x5e>
    264a:	bf00      	nop
    264c:	20000638 	andcs	r0, r0, r8, lsr r6
    2650:	000030ed 	andeq	r3, r0, sp, ror #1

00002654 <ser_outf>:

//+++ "__outserial.c"

procname (__outserial);

int ser_outf (word st, const char *m, ...) {
    2654:	b40e      	push	{r1, r2, r3}
    2656:	b577      	push	{r0, r1, r2, r4, r5, r6, lr}
    2658:	4604      	mov	r4, r0

	int prcs;
	char *buf;
	va_list ap;

	if ((prcs = running (__outserial)) != 0) {
    265a:	4812      	ldr	r0, [pc, #72]	; (26a4 <ser_outf+0x50>)
    265c:	f7ff f938 	bl	18d0 <running>
    2660:	4606      	mov	r6, r0
    2662:	b120      	cbz	r0, 266e <ser_outf+0x1a>
		/* We have to wait */
		join (prcs, st);
    2664:	4621      	mov	r1, r4
    2666:	f7ff f905 	bl	1874 <__pi_join>
	if ((buf = vform (NULL, m, ap)) == NULL) {
		/*
		 * This means that we are out of memory
		 */
		umwait (st);
		release;
    266a:	f7fe fe5f 	bl	132c <__pi_release>
	va_start (ap, m);
    266e:	aa08      	add	r2, sp, #32
	if ((buf = vform (NULL, m, ap)) == NULL) {
    2670:	9907      	ldr	r1, [sp, #28]
	va_start (ap, m);
    2672:	9201      	str	r2, [sp, #4]
	if ((buf = vform (NULL, m, ap)) == NULL) {
    2674:	f000 fef0 	bl	3458 <vform>
    2678:	4605      	mov	r5, r0
    267a:	b918      	cbnz	r0, 2684 <ser_outf+0x30>
		umwait (st);
    267c:	4620      	mov	r0, r4
    267e:	f7ff faa9 	bl	1bd4 <__pi_waitmem>
    2682:	e7f2      	b.n	266a <ser_outf+0x16>
	}

	if (runstrand (__outserial, buf) == 0) {
    2684:	4601      	mov	r1, r0
    2686:	4807      	ldr	r0, [pc, #28]	; (26a4 <ser_outf+0x50>)
    2688:	f7ff fa8a 	bl	1ba0 <__pi_fork>
    268c:	b918      	cbnz	r0, 2696 <ser_outf+0x42>
		ufree (buf);
    268e:	4628      	mov	r0, r5
    2690:	f7ff f9e6 	bl	1a60 <__pi_free>
		npwait (st);
    2694:	e7f2      	b.n	267c <ser_outf+0x28>
		release;
	}

	return 0;
}
    2696:	4630      	mov	r0, r6
    2698:	b003      	add	sp, #12
    269a:	e8bd 4070 	ldmia.w	sp!, {r4, r5, r6, lr}
    269e:	b003      	add	sp, #12
    26a0:	4770      	bx	lr
    26a2:	bf00      	nop
    26a4:	0000307d 	andeq	r3, r0, sp, ror r0

000026a8 <ser_inf>:

extern char *__inpline;

procname (__inserial);

int ser_inf (word st, const char *fmt, ...) {
    26a8:	b40e      	push	{r1, r2, r3}
    26aa:	b533      	push	{r0, r1, r4, r5, lr}
    26ac:	9905      	ldr	r1, [sp, #20]
    26ae:	4604      	mov	r4, r0
/* ========= */

	int prcs;
	va_list	ap;

	if (fmt == NULL)
    26b0:	b321      	cbz	r1, 26fc <ser_inf+0x54>
		return 0;

	if (__inpline == NULL) {
    26b2:	4d13      	ldr	r5, [pc, #76]	; (2700 <ser_inf+0x58>)
    26b4:	6828      	ldr	r0, [r5, #0]
    26b6:	b988      	cbnz	r0, 26dc <ser_inf+0x34>
		if ((prcs = running (__inserial)) == 0) {
    26b8:	4812      	ldr	r0, [pc, #72]	; (2704 <ser_inf+0x5c>)
    26ba:	f7ff f909 	bl	18d0 <running>
    26be:	b948      	cbnz	r0, 26d4 <ser_inf+0x2c>
			prcs = runthread (__inserial);
    26c0:	4601      	mov	r1, r0
    26c2:	4810      	ldr	r0, [pc, #64]	; (2704 <ser_inf+0x5c>)
    26c4:	f7ff fa6c 	bl	1ba0 <__pi_fork>
			if (prcs == 0) {
    26c8:	b920      	cbnz	r0, 26d4 <ser_inf+0x2c>
				npwait (st);
    26ca:	4620      	mov	r0, r4
    26cc:	f7ff fa82 	bl	1bd4 <__pi_waitmem>
				release;
			}
		}
		join (prcs, st);
		release;
    26d0:	f7fe fe2c 	bl	132c <__pi_release>
		join (prcs, st);
    26d4:	4621      	mov	r1, r4
    26d6:	f7ff f8cd 	bl	1874 <__pi_join>
    26da:	e7f9      	b.n	26d0 <ser_inf+0x28>
	}

	/* Input available */
	va_start (ap, fmt);
    26dc:	aa06      	add	r2, sp, #24
    26de:	9201      	str	r2, [sp, #4]

	prcs = vscan (__inpline, fmt, ap);
    26e0:	f000 fee2 	bl	34a8 <vscan>
    26e4:	4604      	mov	r4, r0

	ufree (__inpline);
    26e6:	6828      	ldr	r0, [r5, #0]
    26e8:	f7ff f9ba 	bl	1a60 <__pi_free>
	__inpline = NULL;
    26ec:	2300      	movs	r3, #0
    26ee:	602b      	str	r3, [r5, #0]

	return prcs;
}
    26f0:	4620      	mov	r0, r4
    26f2:	b002      	add	sp, #8
    26f4:	e8bd 4030 	ldmia.w	sp!, {r4, r5, lr}
    26f8:	b003      	add	sp, #12
    26fa:	4770      	bx	lr
		return 0;
    26fc:	460c      	mov	r4, r1
    26fe:	e7f7      	b.n	26f0 <ser_inf+0x48>
    2700:	20000638 	andcs	r0, r0, r8, lsr r6
    2704:	000030ed 	andeq	r3, r0, sp, ror #1

00002708 <plugch>:
//
// Insert the channel number as the right frequency in the proper place
//
	RF_cmdFs.frequency = 
		// Channel number is just the megahertz increment
		RF_cmdPropRadioDivSetup.centerFreq = CC1350_BASEFREQ + channel;
    2708:	4b04      	ldr	r3, [pc, #16]	; (271c <plugch+0x14>)
    270a:	4a05      	ldr	r2, [pc, #20]	; (2720 <plugch+0x18>)
    270c:	781b      	ldrb	r3, [r3, #0]
    270e:	f503 7359 	add.w	r3, r3, #868	; 0x364
    2712:	8413      	strh	r3, [r2, #32]
	RF_cmdFs.frequency = 
    2714:	4a03      	ldr	r2, [pc, #12]	; (2724 <plugch+0x1c>)
    2716:	81d3      	strh	r3, [r2, #14]
}
    2718:	4770      	bx	lr
    271a:	bf00      	nop
    271c:	200005f0 	strdcs	r0, [r0], -r0	; <UNPREDICTABLE>
    2720:	20000054 	andcs	r0, r0, r4, asr r0
    2724:	2000003c 	andcs	r0, r0, ip, lsr r0

00002728 <option>:

	// Make rbuffl exactly equal to max payload length
	rbuffl -= 2;
}

static int option (int opt, address val) {
    2728:	b570      	push	{r4, r5, r6, lr}
    272a:	460c      	mov	r4, r1
    272c:	281a      	cmp	r0, #26
    272e:	f200 80a4 	bhi.w	287a <option+0x152>
    2732:	e8df f000 	tbb	[pc, r0]
    2736:	3939390e 	ldmdbcc	r9!, {r1, r2, r3, r8, fp, ip, sp}
    273a:	674f3014 	smlaldvs	r3, pc, r4, r0	; <UNPREDICTABLE>
    273e:	3b35445b 	blcc	d538b2 <__ccfg+0xd3390a>
    2742:	a2a2a2a2 	adcge	sl, r2, #536870922	; 0x2000000a
    2746:	777aa2a2 	ldrbvc	sl, [sl, -r2, lsr #5]!
    274a:	898ba2a2 	stmibhi	fp, {r1, r5, r7, r9, sp, pc}
    274e:	009aa241 	addseq	sl, sl, r1, asr #4

	switch (opt) {

		case PHYSOPT_STATUS:

			ret = 2 | ((dstate & DSTATE_RXON) != 0);
    2752:	4b4c      	ldr	r3, [pc, #304]	; (2884 <option+0x15c>)
    2754:	7818      	ldrb	r0, [r3, #0]
    2756:	f000 0001 	and.w	r0, r0, #1
			ret = (int) statid;
			goto RVal;

		case PHYSOPT_GETMAXPL:

			ret = rbuffl + 2;
    275a:	3002      	adds	r0, #2
			goto RVal;
    275c:	e028      	b.n	27b0 <option+0x88>
			_BIS (dstate, DSTATE_RXON);
    275e:	4a49      	ldr	r2, [pc, #292]	; (2884 <option+0x15c>)
    2760:	7813      	ldrb	r3, [r2, #0]
    2762:	f043 0301 	orr.w	r3, r3, #1
    2766:	7013      	strb	r3, [r2, #0]
	int ret = 0;
    2768:	2000      	movs	r0, #0
			p_trigger (drvprcs, qevent);
    276a:	4b47      	ldr	r3, [pc, #284]	; (2888 <option+0x160>)
    276c:	6819      	ldr	r1, [r3, #0]
    276e:	4b47      	ldr	r3, [pc, #284]	; (288c <option+0x164>)
    2770:	460c      	mov	r4, r1
    2772:	681d      	ldr	r5, [r3, #0]
    2774:	2300      	movs	r3, #0
    2776:	f834 2b10 	ldrh.w	r2, [r4], #16
    277a:	f002 0207 	and.w	r2, r2, #7
    277e:	429a      	cmp	r2, r3
    2780:	dd08      	ble.n	2794 <option+0x6c>
    2782:	f854 6033 	ldr.w	r6, [r4, r3, lsl #3]
    2786:	3301      	adds	r3, #1
    2788:	42ae      	cmp	r6, r5
    278a:	d1f8      	bne.n	277e <option+0x56>
    278c:	eb01 03c3 	add.w	r3, r1, r3, lsl #3
    2790:	889b      	ldrh	r3, [r3, #4]
    2792:	800b      	strh	r3, [r1, #0]
	return ret;
RVal:
	if (val != NULL)
		*val = ret;
	goto RRet;
}
    2794:	bd70      	pop	{r4, r5, r6, pc}
			_BIC (dstate, DSTATE_RXON);
    2796:	4a3b      	ldr	r2, [pc, #236]	; (2884 <option+0x15c>)
    2798:	7813      	ldrb	r3, [r2, #0]
    279a:	f023 0301 	bic.w	r3, r3, #1
    279e:	e7e2      	b.n	2766 <option+0x3e>
			statid = (val == NULL) ? 0 : *val;
    27a0:	b101      	cbz	r1, 27a4 <option+0x7c>
    27a2:	880c      	ldrh	r4, [r1, #0]
    27a4:	4b3a      	ldr	r3, [pc, #232]	; (2890 <option+0x168>)
    27a6:	801c      	strh	r4, [r3, #0]
	int ret = 0;
    27a8:	2000      	movs	r0, #0
    27aa:	e7f3      	b.n	2794 <option+0x6c>
			ret = (int) statid;
    27ac:	4b38      	ldr	r3, [pc, #224]	; (2890 <option+0x168>)
    27ae:	8818      	ldrh	r0, [r3, #0]
	if (val != NULL)
    27b0:	2c00      	cmp	r4, #0
    27b2:	d0ef      	beq.n	2794 <option+0x6c>
		*val = ret;
    27b4:	8020      	strh	r0, [r4, #0]
	return ret;
    27b6:	e7ed      	b.n	2794 <option+0x6c>
			ret = rbuffl + 2;
    27b8:	4b36      	ldr	r3, [pc, #216]	; (2894 <option+0x16c>)
    27ba:	7818      	ldrb	r0, [r3, #0]
    27bc:	e7cd      	b.n	275a <option+0x32>
				memcpy (val, &rxstat,
    27be:	220c      	movs	r2, #12
			if (val != NULL) {
    27c0:	b121      	cbz	r1, 27cc <option+0xa4>
				memcpy (val, &rxstat,
    27c2:	4620      	mov	r0, r4
    27c4:	4934      	ldr	r1, [pc, #208]	; (2898 <option+0x170>)
    27c6:	f7ff f8b2 	bl	192e <__pi_memcpy>
    27ca:	e7ed      	b.n	27a8 <option+0x80>
				memset (&rxstat, 0, 
    27cc:	4832      	ldr	r0, [pc, #200]	; (2898 <option+0x170>)
    27ce:	f7ff f8b8 	bl	1942 <__pi_memset>
    27d2:	e7e9      	b.n	27a8 <option+0x80>
			if (val == NULL)
    27d4:	b941      	cbnz	r1, 27e8 <option+0xc0>
				gbackoff (RADIO_LBT_BACKOFF_EXP);
    27d6:	f7ff faa7 	bl	1d28 <lrnd>
    27da:	f3c0 4105 	ubfx	r1, r0, #16, #6
    27de:	3102      	adds	r1, #2
				utimer_set (bckf_timer, *val);
    27e0:	482e      	ldr	r0, [pc, #184]	; (289c <option+0x174>)
    27e2:	f7fe ff9f 	bl	1724 <__pi_utimer_set>
    27e6:	e7bf      	b.n	2768 <option+0x40>
    27e8:	8809      	ldrh	r1, [r1, #0]
    27ea:	e7f9      	b.n	27e0 <option+0xb8>
			for (ret = 0; ret < 8; ret++)
    27ec:	2000      	movs	r0, #0
				if (RF_cmdPropRadioDivSetup.txPower
    27ee:	4b2c      	ldr	r3, [pc, #176]	; (28a0 <option+0x178>)
    27f0:	8b5a      	ldrh	r2, [r3, #26]
    27f2:	4b2c      	ldr	r3, [pc, #176]	; (28a4 <option+0x17c>)
					== patable [ret])
    27f4:	f833 1b02 	ldrh.w	r1, [r3], #2
				if (RF_cmdPropRadioDivSetup.txPower
    27f8:	428a      	cmp	r2, r1
    27fa:	d0d9      	beq.n	27b0 <option+0x88>
			for (ret = 0; ret < 8; ret++)
    27fc:	3001      	adds	r0, #1
    27fe:	2808      	cmp	r0, #8
    2800:	d1f8      	bne.n	27f4 <option+0xcc>
    2802:	e7d5      	b.n	27b0 <option+0x88>
			ret = (val == NULL) ? RADIO_DEFAULT_POWER :
    2804:	b119      	cbz	r1, 280e <option+0xe6>
				(*val > 7) ? 7 : *val;
    2806:	8808      	ldrh	r0, [r1, #0]
			ret = (val == NULL) ? RADIO_DEFAULT_POWER :
    2808:	2807      	cmp	r0, #7
    280a:	bf28      	it	cs
    280c:	2007      	movcs	r0, #7
			RF_cmdPropRadioDivSetup.txPower = patable [ret];
    280e:	4b25      	ldr	r3, [pc, #148]	; (28a4 <option+0x17c>)
    2810:	f833 2010 	ldrh.w	r2, [r3, r0, lsl #1]
    2814:	4b22      	ldr	r3, [pc, #136]	; (28a0 <option+0x178>)
    2816:	835a      	strh	r2, [r3, #26]
			_BIS (dstate, DSTATE_IRST);
    2818:	4a1a      	ldr	r2, [pc, #104]	; (2884 <option+0x15c>)
    281a:	7813      	ldrb	r3, [r2, #0]
    281c:	f063 037f 	orn	r3, r3, #127	; 0x7f
    2820:	7013      	strb	r3, [r2, #0]
			goto OREvnt;
    2822:	e7a2      	b.n	276a <option+0x42>
			ret = (int) channel;
    2824:	4b20      	ldr	r3, [pc, #128]	; (28a8 <option+0x180>)
			ret = (int) vrate;
    2826:	7818      	ldrb	r0, [r3, #0]
			goto RVal;
    2828:	e7c2      	b.n	27b0 <option+0x88>
			channel = (val == NULL) ? RADIO_DEFAULT_CHANNEL :
    282a:	b121      	cbz	r1, 2836 <option+0x10e>
				(*val > 7) ? 7 : *val;
    282c:	880c      	ldrh	r4, [r1, #0]
    282e:	2c07      	cmp	r4, #7
    2830:	bf28      	it	cs
    2832:	2407      	movcs	r4, #7
			channel = (val == NULL) ? RADIO_DEFAULT_CHANNEL :
    2834:	b2e4      	uxtb	r4, r4
    2836:	4b1c      	ldr	r3, [pc, #112]	; (28a8 <option+0x180>)
    2838:	701c      	strb	r4, [r3, #0]
			plugch ();
    283a:	f7ff ff65 	bl	2708 <plugch>
			_BIS (dstate, DSTATE_IRST);
    283e:	4a11      	ldr	r2, [pc, #68]	; (2884 <option+0x15c>)
    2840:	7813      	ldrb	r3, [r2, #0]
    2842:	f063 037f 	orn	r3, r3, #127	; 0x7f
    2846:	e78e      	b.n	2766 <option+0x3e>
			ret = (int) vrate;
    2848:	4b18      	ldr	r3, [pc, #96]	; (28ac <option+0x184>)
    284a:	e7ec      	b.n	2826 <option+0xfe>
			vrate = (val == NULL) ? RADIO_BITRATE_INDEX :
    284c:	b139      	cbz	r1, 285e <option+0x136>
				(*val > 3) ? 3 : (*val < 1) ? 1 : *val;
    284e:	880b      	ldrh	r3, [r1, #0]
			vrate = (val == NULL) ? RADIO_BITRATE_INDEX :
    2850:	2b03      	cmp	r3, #3
    2852:	d806      	bhi.n	2862 <option+0x13a>
    2854:	b13b      	cbz	r3, 2866 <option+0x13e>
    2856:	b2db      	uxtb	r3, r3
    2858:	4a14      	ldr	r2, [pc, #80]	; (28ac <option+0x184>)
    285a:	7013      	strb	r3, [r2, #0]
    285c:	e7ed      	b.n	283a <option+0x112>
    285e:	2302      	movs	r3, #2
    2860:	e7fa      	b.n	2858 <option+0x130>
    2862:	2303      	movs	r3, #3
    2864:	e7f8      	b.n	2858 <option+0x130>
    2866:	2301      	movs	r3, #1
    2868:	e7f6      	b.n	2858 <option+0x130>
			offdelay = (val == NULL) ? RADIO_DEFAULT_OFFDELAY :
    286a:	b119      	cbz	r1, 2874 <option+0x14c>
    286c:	880b      	ldrh	r3, [r1, #0]
    286e:	4a10      	ldr	r2, [pc, #64]	; (28b0 <option+0x188>)
    2870:	8013      	strh	r3, [r2, #0]
			goto RRet;
    2872:	e799      	b.n	27a8 <option+0x80>
			offdelay = (val == NULL) ? RADIO_DEFAULT_OFFDELAY :
    2874:	f44f 7380 	mov.w	r3, #256	; 0x100
    2878:	e7f9      	b.n	286e <option+0x146>
			syserror (EREQPAR, "cc13 op");
    287a:	2003      	movs	r0, #3
    287c:	490d      	ldr	r1, [pc, #52]	; (28b4 <option+0x18c>)
    287e:	f7fe f997 	bl	bb0 <__pi_syserror>
    2882:	bf00      	nop
    2884:	200005f8 	strdcs	r0, [r0], -r8
    2888:	200005f4 	strdcs	r0, [r0], -r4
    288c:	20000604 	andcs	r0, r0, r4, lsl #12
    2890:	20000628 	andcs	r0, r0, r8, lsr #12
    2894:	20000608 	andcs	r0, r0, r8, lsl #12
    2898:	2000061c 	andcs	r0, r0, ip, lsl r6
    289c:	200005ee 	andcs	r0, r0, lr, ror #11
    28a0:	20000054 	andcs	r0, r0, r4, asr r0
    28a4:	0000508e 	andeq	r5, r0, lr, lsl #1
    28a8:	200005f0 	strdcs	r0, [r0], -r0	; <UNPREDICTABLE>
    28ac:	2000003a 	andcs	r0, r0, sl, lsr r0
    28b0:	20000038 	andcs	r0, r0, r8, lsr r0
    28b4:	0000502a 	andeq	r5, r0, sl, lsr #32

000028b8 <issue_cmd>:
static void issue_cmd (lword cmd) {
    28b8:	b538      	push	{r3, r4, r5, lr}
    28ba:	4604      	mov	r4, r0
    28bc:	4d0c      	ldr	r5, [pc, #48]	; (28f0 <issue_cmd+0x38>)
		if ((res = RFCDoorbellSendTo (cmd) & 0xff) == 0x01)
    28be:	4620      	mov	r0, r4
    28c0:	f001 f8a4 	bl	3a0c <NOROM_RFCDoorbellSendTo>
    28c4:	b2c2      	uxtb	r2, r0
    28c6:	2a01      	cmp	r2, #1
    28c8:	d011      	beq.n	28ee <issue_cmd+0x36>
		if (res != 0x86)
    28ca:	2a86      	cmp	r2, #134	; 0x86
    28cc:	d003      	beq.n	28d6 <issue_cmd+0x1e>
			syserror (EHARDWARE, "rt1");
    28ce:	4909      	ldr	r1, [pc, #36]	; (28f4 <issue_cmd+0x3c>)
			syserror (EHARDWARE, "hang ic0");
    28d0:	2008      	movs	r0, #8
